Certificate:
    Data:
        Version: 1 (0x0)
        Serial Number: 1 (0x1)
        Signature Algorithm: sha256WithRSAEncryption
        Issuer: CN=ca
        Validity
            Not Before: Dec  2 10:01:00 2024 GMT
            Not After : Dec  7 11:15:00 2024 GMT
        Subject: CN=jorge
        Subject Public Key Info:
            Public Key Algorithm: rsaEncryption
                Public-Key: (2048 bit)
                Modulus:
                    00:9f:cb:9c:17:ea:d9:bd:55:f4:ba:4b:7b:b9:88:
                    12:d8:85:55:8a:c9:0d:40:db:e1:52:42:fa:25:93:
                    43:b9:27:db:08:9f:b1:c4:34:89:e8:66:da:92:c3:
                    1b:6b:30:4e:2e:33:91:b7:a1:bf:4f:f2:f2:45:9b:
                    c8:9b:bd:bf:06:fb:2c:61:be:6e:57:02:b8:3e:bc:
                    65:3c:9a:a6:2d:18:3a:1e:e3:ba:92:ab:75:27:8f:
                    e3:a0:fc:a0:85:7c:bd:a6:24:11:e1:bc:30:f1:9f:
                    b4:42:cb:f1:86:7f:01:2d:47:84:0c:8c:63:6a:0f:
                    9a:00:6b:bd:b5:a3:ac:d5:71:10:f4:f2:3d:2e:73:
                    f3:7f:71:c7:28:c1:ad:8a:bf:bf:22:b4:be:9c:c4:
                    3d:48:e8:80:16:0d:2f:fb:6c:09:54:43:52:1d:17:
                    0b:dc:3a:83:17:31:78:5a:a3:06:74:b0:b8:94:92:
                    8e:eb:a8:ce:16:56:99:b9:30:53:56:26:2b:2c:a8:
                    44:51:f3:a4:a7:43:79:d8:fd:7a:d7:0d:e7:75:fe:
                    7b:aa:c0:8f:dc:d5:11:61:cb:ee:5b:1f:a6:f5:7a:
                    12:c4:fa:80:01:3d:ab:fa:2b:8b:44:bc:59:59:6f:
                    7d:af:96:7e:8f:ab:9c:e5:08:35:fa:c5:5b:d1:03:
                    5d:c5
                Exponent: 65537 (0x10001)
    Signature Algorithm: sha256WithRSAEncryption
    Signature Value:
        24:ac:bf:85:e3:54:a5:63:20:0e:28:91:df:94:55:e2:b2:12:
        91:06:bb:1e:51:62:0b:76:16:a6:d3:b5:dd:01:0d:ba:af:7a:
        52:53:8a:18:5e:72:1b:67:56:57:bc:c3:7b:a5:a8:a1:b8:d1:
        ad:c7:2d:ca:7c:bf:82:fe:86:b2:c7:fc:d4:d0:28:51:c9:fe:
        af:83:d3:c8:d3:7a:81:6e:95:88:ec:d9:b2:f4:a8:b4:62:96:
        78:a0:d5:43:5d:e1:36:9d:32:8c:f9:4b:9b:3d:f7:28:8e:4c:
        2d:24:92:f9:9a:33:1e:a7:06:96:99:8b:f4:57:65:11:68:b8:
        f0:c4:99:35:24:23:f1:e7:23:f8:99:e6:1f:fe:b6:65:d0:fc:
        98:f1:93:5a:07:f9:4d:24:57:90:ca:2c:e6:58:c0:30:70:7d:
        2e:40:b6:b2:72:07:94:91:02:af:15:f4:c8:f1:25:a9:9e:25:
        f9:ee:da:5c:1c:41:ea:ef:de:5e:40:b5:ec:0b:f2:95:13:ab:
        72:e1:2d:4b:89:47:39:46:8d:9c:9c:10:08:8e:5d:77:3b:e9:
        50:b2:11:f7:98:91:3b:fb:7a:82:c0:50:83:bf:1e:f4:c7:1a:
        2d:bd:9f:ce:e9:2b:90:4f:9b:91:9b:ba:a2:26:5f:8c:60:18:
        c1:3e:44:0b
-----BEGIN CERTIFICATE-----
MIICkTCCAXkCAQEwDQYJKoZIhvcNAQELBQAwDTELMAkGA1UEAwwCY2EwHhcNMjQx
MjAyMTAwMTAwWhcNMjQxMjA3MTExNTAwWjAQMQ4wDAYDVQQDDAVqb3JnZTCCASIw
DQYJKoZIhvcNAQEBBQADggEPADCCAQoCggEBAJ/LnBfq2b1V9LpLe7mIEtiFVYrJ
DUDb4VJC+iWTQ7kn2wifscQ0iehm2pLDG2swTi4zkbehv0/y8kWbyJu9vwb7LGG+
blcCuD68ZTyapi0YOh7jupKrdSeP46D8oIV8vaYkEeG8MPGftELL8YZ/AS1HhAyM
Y2oPmgBrvbWjrNVxEPTyPS5z839xxyjBrYq/vyK0vpzEPUjogBYNL/tsCVRDUh0X
C9w6gxcxeFqjBnSwuJSSjuuozhZWmbkwU1YmKyyoRFHzpKdDedj9etcN53X+e6rA
j9zVEWHL7lsfpvV6EsT6gAE9q/ori0S8WVlvfa+Wfo+rnOUINfrFW9EDXcUCAwEA
ATANBgkqhkiG9w0BAQsFAAOCAQEAJKy/heNUpWMgDiiR35RV4rISkQa7HlFiC3YW
ptO13QENuq96UlOKGF5yG2dWV7zDe6WoobjRrcctyny/gv6Gssf81NAoUcn+r4PT
yNN6gW6ViOzZsvSotGKWeKDVQ13hNp0yjPlLmz33KI5MLSSS+ZozHqcGlpmL9Fdl
EWi48MSZNSQj8ecj+JnmH/62ZdD8mPGTWgf5TSRXkMos5ljAMHB9LkC2snIHlJEC
rxX0yPElqZ4l+e7aXBxB6u/eXkC17AvylROrcuEtS4lHOUaNnJwQCI5ddzvpULIR
95iRO/t6gsBQg78e9McaLb2fzukrkE+bkZu6oiZfjGAYwT5ECw==
-----END CERTIFICATE-----
