Certificate:
    Data:
        Version: 1 (0x0)
        Serial Number: 0 (0x0)
        Signature Algorithm: sha256WithRSAEncryption
        Issuer: CN=AGULE
        Validity
            Not Before: May 26 22:52:00 2026 GMT
            Not After : May 26 22:52:00 2027 GMT
        Subject: CN=mario2
        Subject Public Key Info:
            Public Key Algorithm: rsaEncryption
                Public-Key: (2048 bit)
                Modulus:
                    00:ba:7c:8f:fd:0f:35:54:10:dd:e4:f0:14:98:a0:
                    77:90:25:07:57:d5:1a:72:0f:45:86:81:57:0c:db:
                    95:29:24:2f:56:53:7d:30:77:b3:be:bf:d8:b1:dd:
                    4b:18:aa:79:dc:c0:da:06:7d:9e:10:67:ef:0d:98:
                    30:38:9c:94:f9:9d:39:77:1f:67:ad:64:ff:6a:7d:
                    c5:d5:f3:73:55:9f:4c:06:ed:a8:36:9d:d5:b5:3d:
                    67:31:a4:0f:f2:db:ee:9f:26:c1:15:89:ab:3c:28:
                    71:46:a3:79:3a:3b:0a:71:9e:96:9d:f5:00:57:81:
                    19:77:d5:a3:4a:51:b2:88:06:a1:92:71:da:92:a1:
                    4c:90:82:3b:0d:cb:fa:7d:41:b2:03:af:73:b2:81:
                    a3:0d:99:50:93:88:fb:3d:89:46:f4:66:fc:0e:20:
                    8d:f5:3f:ff:ca:56:0f:a3:25:29:1f:c1:95:0a:17:
                    86:8e:3a:8d:0a:50:0d:02:e2:55:af:9f:11:31:6e:
                    48:04:e8:b5:22:37:38:dd:7e:5b:57:88:af:2e:86:
                    11:54:a6:82:51:72:a3:94:80:a7:ab:06:6c:35:1b:
                    47:eb:59:bc:ac:9c:cc:91:3d:24:c5:e6:c2:09:13:
                    b8:30:4d:5d:88:a9:70:5d:be:d8:cf:0c:69:16:60:
                    b8:91
                Exponent: 65537 (0x10001)
    Signature Algorithm: sha256WithRSAEncryption
    Signature Value:
        6f:9c:9d:94:1b:f5:08:f1:5f:d6:60:29:09:ca:c7:87:89:36:
        5c:80:94:ac:92:d5:2c:e1:e6:da:4b:6f:95:ef:2a:8c:2a:ab:
        cb:b1:19:64:cc:98:57:46:46:62:07:7e:7f:ee:4a:6b:55:7c:
        17:a4:46:60:4a:d5:7f:4b:b7:42:ae:56:17:b8:b6:a6:3b:52:
        2e:ef:1f:af:c2:3f:d2:15:b8:71:b1:c5:a2:92:0c:3a:86:39:
        cc:17:36:c4:6d:1c:f5:b3:a4:1f:92:b1:e3:4a:29:c6:58:c1:
        13:93:3b:ba:13:95:84:e6:b9:5c:d1:2e:67:dd:de:3b:36:01:
        2b:03:b0:3b:9a:af:87:be:b2:a9:08:23:6c:0d:20:a0:24:af:
        6b:b1:d0:bd:6c:12:76:9a:de:6b:a5:c8:89:b3:90:6c:47:49:
        b0:5f:4f:90:36:2d:42:a4:46:51:44:d4:85:b3:49:21:1a:ba:
        a8:05:9d:39:9f:1e:4c:a5:24:01:3c:f8:d2:5b:92:90:1e:56:
        f7:64:e7:26:a5:5e:d9:7b:dd:f3:54:c7:f2:be:93:bd:18:8d:
        df:80:f0:86:f0:0b:12:7e:db:51:ad:73:48:63:a0:ca:e4:9b:
        db:7e:27:df:8d:d5:e5:b8:05:fc:f2:0e:60:b0:6d:25:d2:b0:
        55:f8:0c:1b:d3:c7:dd:b2:fe:92:9e:79:7b:45:1f:42:08:2d:
        9e:5d:c1:d5:8a:0e:73:37:98:e4:29:17:65:13:0e:3f:bf:e2:
        b4:f8:5f:2f:99:6f:bb:ae:4f:46:2e:5a:20:a0:2f:26:93:ba:
        49:c3:e0:9e:4e:3a:24:bf:00:c6:3b:6e:01:68:f9:36:56:00:
        f1:1f:bb:16:5d:7c:8b:90:f9:0c:f2:44:cb:1b:0c:ec:11:d7:
        f0:8c:55:5a:89:0a:33:57:02:db:18:75:d3:7d:3e:85:94:c2:
        8a:be:b1:70:f4:da:e0:53:e2:89:ae:fe:06:66:da:5b:f9:4e:
        ad:76:d0:b4:d2:c1:5c:9b:5e:ba:7e:24:2b:96:98:bb:8f:ea:
        42:5a:9f:ad:a9:f7:5d:a6:20:8f:d2:a1:17:ff:af:75:0b:89:
        04:8f:90:d1:f4:3a:ca:f4:e8:76:54:e1:35:49:b6:e2:07:63:
        87:a0:5a:71:bb:7f:28:f7:70:39:ab:7d:62:f6:b8:fe:cd:02:
        b4:5b:f5:c7:34:fb:0e:8b:d7:8f:fb:94:3a:b1:05:d9:e6:0a:
        00:a8:b1:e9:5b:98:5e:c0:6d:ab:8f:55:7c:5a:cb:49:15:be:
        b9:be:98:eb:43:ab:94:7f:05:07:f5:52:eb:06:bc:2b:0e:2a:
        a1:8e:3f:15:93:d3:99:c3
-----BEGIN CERTIFICATE-----
MIIDlTCCAX0CAQAwDQYJKoZIhvcNAQELBQAwEDEOMAwGA1UEAwwFQUdVTEUwHhcN
MjYwNTI2MjI1MjAwWhcNMjcwNTI2MjI1MjAwWjARMQ8wDQYDVQQDDAZtYXJpbzIw
ggEiMA0GCSqGSIb3DQEBAQUAA4IBDwAwggEKAoIBAQC6fI/9DzVUEN3k8BSYoHeQ
JQdX1RpyD0WGgVcM25UpJC9WU30wd7O+v9ix3UsYqnncwNoGfZ4QZ+8NmDA4nJT5
nTl3H2etZP9qfcXV83NVn0wG7ag2ndW1PWcxpA/y2+6fJsEVias8KHFGo3k6Owpx
npad9QBXgRl31aNKUbKIBqGScdqSoUyQgjsNy/p9QbIDr3OygaMNmVCTiPs9iUb0
ZvwOII31P//KVg+jJSkfwZUKF4aOOo0KUA0C4lWvnxExbkgE6LUiNzjdfltXiK8u
hhFUpoJRcqOUgKerBmw1G0frWbysnMyRPSTF5sIJE7gwTV2IqXBdvtjPDGkWYLiR
AgMBAAEwDQYJKoZIhvcNAQELBQADggIBAG+cnZQb9QjxX9ZgKQnKx4eJNlyAlKyS
1Szh5tpLb5XvKowqq8uxGWTMmFdGRmIHfn/uSmtVfBekRmBK1X9Lt0KuVhe4tqY7
Ui7vH6/CP9IVuHGxxaKSDDqGOcwXNsRtHPWzpB+SseNKKcZYwROTO7oTlYTmuVzR
Lmfd3js2ASsDsDuar4e+sqkII2wNIKAkr2ux0L1sEnaa3mulyImzkGxHSbBfT5A2
LUKkRlFE1IWzSSEauqgFnTmfHkylJAE8+NJbkpAeVvdk5yalXtl73fNUx/K+k70Y
jd+A8IbwCxJ+21Gtc0hjoMrkm9t+J9+N1eW4BfzyDmCwbSXSsFX4DBvTx92y/pKe
eXtFH0IILZ5dwdWKDnM3mOQpF2UTDj+/4rT4Xy+Zb7uuT0YuWiCgLyaTuknD4J5O
OiS/AMY7bgFo+TZWAPEfuxZdfIuQ+QzyRMsbDOwR1/CMVVqJCjNXAtsYddN9PoWU
woq+sXD02uBT4omu/gZm2lv5Tq120LTSwVybXrp+JCuWmLuP6kJan62p912mII/S
oRf/r3ULiQSPkNH0Osr06HZU4TVJtuIHY4egWnG7fyj3cDmrfWL2uP7NArRb9cc0
+w6L14/7lDqxBdnmCgCoselbmF7AbauPVXxay0kVvrm+mOtDq5R/BQf1UusGvCsO
KqGOPxWT05nD
-----END CERTIFICATE-----
