Certificate:
    Data:
        Version: 1 (0x0)
        Serial Number: 1 (0x1)
        Signature Algorithm: sha256WithRSAEncryption
        Issuer: CN=AGULE
        Validity
            Not Before: Apr 25 12:08:35 2026 GMT
            Not After : Apr 25 12:08:35 2027 GMT
        Subject: CN=mario1
        Subject Public Key Info:
            Public Key Algorithm: rsaEncryption
                Public-Key: (2048 bit)
                Modulus:
                    00:a5:c6:2d:0e:cc:2d:02:94:9c:b1:18:ab:e2:e2:
                    a0:b9:61:a3:a0:05:5f:53:bc:01:f2:1b:cc:58:40:
                    14:59:72:2e:1b:6c:9c:06:25:d2:d5:62:59:62:61:
                    3e:79:50:3b:30:06:89:d4:2f:4b:88:91:3b:00:af:
                    14:e5:69:ab:b0:01:a6:a7:d1:b9:8a:b1:45:dd:c1:
                    04:2b:ae:a2:a8:7f:08:a2:fa:99:5d:96:a7:ab:7c:
                    f3:ff:ff:be:37:93:1b:91:1e:0b:47:71:93:ee:7b:
                    34:9d:43:dc:8f:d8:fe:3e:7f:d7:02:87:57:2b:2e:
                    4a:e6:fe:b0:73:df:8c:4a:70:d4:75:b9:08:55:76:
                    a8:65:7c:2b:5c:f5:c6:07:67:09:3c:79:5b:a1:58:
                    49:26:d3:85:10:8e:34:ae:ae:58:d5:0c:7c:59:1b:
                    8c:7b:68:ba:86:b1:f2:3b:4a:ab:6f:c8:07:44:d9:
                    ce:9e:29:e7:ba:b8:a8:8b:74:fb:47:cf:c5:86:85:
                    07:69:4f:b5:59:74:03:e3:7a:d6:54:9f:04:15:26:
                    5d:3b:17:b2:18:95:d4:3b:f4:72:c4:98:18:f2:f0:
                    58:c8:e1:f4:63:97:eb:d8:97:2a:ad:53:a3:c7:73:
                    89:f1:dd:24:28:c6:d5:f2:cc:e2:f0:37:58:e3:c2:
                    ce:13
                Exponent: 65537 (0x10001)
    Signature Algorithm: sha256WithRSAEncryption
    Signature Value:
        78:34:b6:43:56:e5:34:30:a2:36:b9:81:8c:c0:ff:ca:d1:83:
        f2:82:7b:b2:99:cd:d6:1e:13:2b:2e:11:fc:e2:43:bb:3b:10:
        ba:b0:76:d4:26:61:b9:41:39:dd:18:8e:7f:dc:c2:53:ef:19:
        fc:e6:76:b5:d4:f4:82:11:ff:55:55:71:5b:ab:2d:ef:da:74:
        7d:37:10:0e:5e:05:1e:46:1a:f1:96:b2:c1:6d:5d:81:8f:1e:
        b8:40:58:f6:6f:1d:da:ae:00:e2:75:e9:9c:c0:64:85:02:25:
        f6:c9:1c:84:3f:96:e7:5a:40:08:45:44:77:11:0f:0c:69:1f:
        5a:e6:ff:fe:e6:eb:96:79:e7:38:9e:e0:08:6b:1c:8d:be:d0:
        5c:88:49:75:e7:14:1c:14:8d:94:c3:c8:d0:db:05:e1:86:0a:
        e3:ef:9e:db:1c:89:97:1e:9b:8d:94:ac:91:47:e1:72:ac:5d:
        1c:77:a7:07:18:05:05:d0:29:34:ff:38:4d:2a:a4:2f:45:00:
        3e:91:35:51:a2:f7:2e:d2:2d:57:f4:20:4d:ec:cd:b2:29:14:
        3e:87:de:2a:54:9f:c3:a1:7c:ac:9b:11:be:ae:bc:44:fb:c3:
        f5:e7:ac:53:f7:d9:b6:7a:e5:81:b5:ce:50:5f:32:fe:09:fa:
        42:d5:1b:c6:b2:11:eb:70:f0:e9:da:9b:6a:98:62:6c:2b:9c:
        28:f3:59:68:83:38:b8:4d:9e:91:c2:40:42:88:69:bd:16:7a:
        7a:3b:2d:da:52:3c:79:c2:99:c1:65:5f:42:3c:03:e6:63:f1:
        54:34:c4:eb:fe:ed:f5:e9:7e:f4:30:b0:27:72:f3:10:4d:4a:
        73:7a:04:53:1e:e6:00:59:51:d5:dc:2f:3b:11:bf:80:52:e2:
        80:ad:12:6b:7c:4e:e6:70:aa:e0:80:b8:24:ee:b7:2c:99:f2:
        61:99:40:46:8a:f9:b5:3c:42:87:86:41:84:97:ad:ec:67:7a:
        c3:77:dc:fd:14:f6:0f:e0:e8:e2:69:9e:c9:63:27:59:c2:b7:
        60:56:42:e5:a4:6a:7d:f0:87:79:fb:91:8a:fe:b3:ba:f1:4c:
        79:9d:cf:15:fe:f5:b7:94:5d:2d:09:77:20:a9:79:ac:77:3d:
        0c:5f:88:69:42:ce:52:e2:d3:9f:f0:03:0b:13:ea:45:e2:61:
        bd:70:b7:96:82:a6:18:3a:e2:6c:c0:0f:76:c5:cc:25:d6:1b:
        00:d7:2c:63:02:5d:c6:d3:aa:65:e6:92:ca:78:ba:1f:a8:b8:
        61:32:15:9b:04:f0:dc:8f:d5:76:8d:62:00:27:39:b4:fa:06:
        28:84:c8:d5:c1:ff:fd:2e
-----BEGIN CERTIFICATE-----
MIIDlTCCAX0CAQEwDQYJKoZIhvcNAQELBQAwEDEOMAwGA1UEAwwFQUdVTEUwHhcN
MjYwNDI1MTIwODM1WhcNMjcwNDI1MTIwODM1WjARMQ8wDQYDVQQDDAZtYXJpbzEw
ggEiMA0GCSqGSIb3DQEBAQUAA4IBDwAwggEKAoIBAQClxi0OzC0ClJyxGKvi4qC5
YaOgBV9TvAHyG8xYQBRZci4bbJwGJdLVYlliYT55UDswBonUL0uIkTsArxTlaauw
Aaan0bmKsUXdwQQrrqKofwii+pldlqerfPP//743kxuRHgtHcZPuezSdQ9yP2P4+
f9cCh1crLkrm/rBz34xKcNR1uQhVdqhlfCtc9cYHZwk8eVuhWEkm04UQjjSurljV
DHxZG4x7aLqGsfI7SqtvyAdE2c6eKee6uKiLdPtHz8WGhQdpT7VZdAPjetZUnwQV
Jl07F7IYldQ79HLEmBjy8FjI4fRjl+vYlyqtU6PHc4nx3SQoxtXyzOLwN1jjws4T
AgMBAAEwDQYJKoZIhvcNAQELBQADggIBAHg0tkNW5TQwoja5gYzA/8rRg/KCe7KZ
zdYeEysuEfziQ7s7ELqwdtQmYblBOd0Yjn/cwlPvGfzmdrXU9IIR/1VVcVurLe/a
dH03EA5eBR5GGvGWssFtXYGPHrhAWPZvHdquAOJ16ZzAZIUCJfbJHIQ/ludaQAhF
RHcRDwxpH1rm//7m65Z55zie4AhrHI2+0FyISXXnFBwUjZTDyNDbBeGGCuPvntsc
iZcem42UrJFH4XKsXRx3pwcYBQXQKTT/OE0qpC9FAD6RNVGi9y7SLVf0IE3szbIp
FD6H3ipUn8OhfKybEb6uvET7w/XnrFP32bZ65YG1zlBfMv4J+kLVG8ayEetw8Ona
m2qYYmwrnCjzWWiDOLhNnpHCQEKIab0Weno7LdpSPHnCmcFlX0I8A+Zj8VQ0xOv+
7fXpfvQwsCdy8xBNSnN6BFMe5gBZUdXcLzsRv4BS4oCtEmt8TuZwquCAuCTutyyZ
8mGZQEaK+bU8QoeGQYSXrexnesN33P0U9g/g6OJpnsljJ1nCt2BWQuWkan3wh3n7
kYr+s7rxTHmdzxX+9beUXS0JdyCpeax3PQxfiGlCzlLi05/wAwsT6kXiYb1wt5aC
phg64mzAD3bFzCXWGwDXLGMCXcbTqmXmksp4uh+ouGEyFZsE8NyP1XaNYgAnObT6
BiiEyNXB//0u
-----END CERTIFICATE-----
