Certificate:
    Data:
        Version: 1 (0x0)
        Serial Number: 1 (0x1)
        Signature Algorithm: sha256WithRSAEncryption
        Issuer: CN=AGULE
        Validity
            Not Before: Apr  8 18:49:15 2026 GMT
            Not After : Apr  8 18:49:15 2027 GMT
        Subject: CN=mario1
        Subject Public Key Info:
            Public Key Algorithm: rsaEncryption
                Public-Key: (2048 bit)
                Modulus:
                    00:c7:88:41:91:7d:a4:10:4a:3c:b0:9d:35:7e:6f:
                    e1:73:b5:ad:a6:45:42:e6:69:3c:80:32:ec:c3:c1:
                    df:1a:e6:b6:25:a3:79:33:bf:d2:75:62:1e:35:e0:
                    c0:ba:61:17:75:cd:ca:30:bb:89:6f:11:c8:bd:b3:
                    7a:93:c8:99:17:37:62:d8:ef:3b:a7:d9:e7:15:96:
                    59:e9:a4:ed:9e:d5:82:fc:36:5c:67:61:bb:e2:4a:
                    ab:a4:e6:df:f8:f4:66:07:de:e2:22:70:dd:30:66:
                    69:14:9f:08:25:f4:31:b3:ca:7b:8b:d7:57:d5:23:
                    19:2f:dc:10:bc:17:af:e0:19:64:09:9c:5b:e2:a8:
                    ca:c8:ef:9a:b0:16:a0:2a:88:29:2f:a2:33:9e:5b:
                    d9:55:d3:a7:71:f2:c7:b5:ea:73:ad:5e:c0:c7:b3:
                    c8:4b:4c:fe:83:70:75:d0:ed:e3:09:16:7a:b5:2a:
                    91:20:58:39:9f:b5:dd:34:75:79:2e:ec:3b:fc:7d:
                    0f:07:d8:6f:69:5d:31:98:12:41:fc:a2:2f:01:9f:
                    9c:28:61:71:59:d4:2b:64:23:5e:c2:6c:52:55:50:
                    25:1e:a1:45:85:14:2b:e4:61:7e:ba:16:e6:ae:39:
                    b2:ab:10:6d:62:67:76:ba:3a:cd:c4:dd:d9:a6:4c:
                    7b:f9
                Exponent: 65537 (0x10001)
    Signature Algorithm: sha256WithRSAEncryption
    Signature Value:
        13:33:a2:a9:dd:35:35:34:a4:0e:14:18:d2:f0:50:25:a0:b6:
        a2:26:2e:27:8f:ad:e5:90:d4:4e:2e:e0:27:ac:bd:1b:82:67:
        d2:87:20:56:ab:71:d2:e1:2b:4d:7c:a3:15:0f:62:bb:9f:f1:
        d9:ad:fd:ab:e1:19:5e:d7:e9:c7:fe:b3:a7:76:12:f3:10:4a:
        ce:6f:ef:cf:bc:66:07:24:b1:b7:68:c3:bd:0f:02:55:5d:cf:
        86:dc:8a:a8:e2:42:b3:c5:27:90:d9:7b:2d:fd:60:0e:d4:4b:
        c4:b3:29:6a:22:f2:2c:04:c8:e3:85:de:51:3f:fd:41:2d:c0:
        ff:00:df:65:fb:e6:31:70:7b:c8:74:e6:2c:da:dd:58:16:db:
        fe:8a:7c:db:0a:b8:59:fd:c6:82:4a:0f:8d:1e:17:25:5e:7e:
        24:7e:d9:f4:cf:51:e1:88:4d:ac:58:ff:97:b1:6c:e5:85:6d:
        50:72:41:00:de:5b:ab:29:3a:bd:68:48:4b:4b:7f:5a:0b:93:
        bb:8f:64:9e:7a:e2:96:d4:bf:c4:f9:8d:ad:fd:96:20:a0:a6:
        3e:07:60:3c:c7:6a:d3:d1:ce:c1:14:99:b7:49:2e:91:cb:16:
        0b:e3:ab:35:2a:f9:89:b5:04:05:25:ce:04:49:ad:c0:6f:1c:
        ff:95:49:58:95:e7:73:e2:7b:1b:07:59:4a:06:88:da:e1:3d:
        94:b7:83:9d:ff:b4:d4:d3:1c:c0:4e:1d:30:87:9f:30:cc:f1:
        dd:1e:0f:36:8b:bd:8d:b4:11:74:0d:9c:3a:2b:f6:34:31:b6:
        a7:87:c0:b8:8f:22:4d:d8:f1:66:8b:a8:ad:11:d3:13:c5:12:
        57:91:80:ac:89:1c:12:c1:ca:19:37:e8:3d:be:1c:97:45:84:
        6e:21:0e:e0:55:05:30:4c:6c:60:38:ce:35:12:2d:37:eb:fb:
        13:13:b4:63:5a:cb:4e:41:2e:bf:85:a3:49:c7:e2:82:44:eb:
        01:80:f4:82:e3:8a:22:ae:59:d0:3d:3c:22:c7:4f:eb:7a:f9:
        1d:c0:26:6a:7b:af:3e:ff:87:34:7d:01:cc:f9:30:37:8a:52:
        08:3a:6b:ab:fb:07:bb:23:40:65:7d:7a:e1:dc:e6:d1:db:72:
        16:5d:ea:87:8f:ac:c3:8f:d7:ad:98:a0:d8:3f:5f:43:00:74:
        9e:8b:0a:64:a2:c8:f9:df:e6:a0:9c:54:85:d6:ce:ac:60:97:
        ac:7a:a0:ce:cc:87:dd:4d:3c:46:99:36:8a:56:25:8d:52:6c:
        e0:5b:b0:54:e2:7b:2c:87:2d:a2:44:53:f2:7e:d1:1f:9a:b0:
        17:15:cf:d5:8b:0a:6b:d7
-----BEGIN CERTIFICATE-----
MIIDlTCCAX0CAQEwDQYJKoZIhvcNAQELBQAwEDEOMAwGA1UEAwwFQUdVTEUwHhcN
MjYwNDA4MTg0OTE1WhcNMjcwNDA4MTg0OTE1WjARMQ8wDQYDVQQDDAZtYXJpbzEw
ggEiMA0GCSqGSIb3DQEBAQUAA4IBDwAwggEKAoIBAQDHiEGRfaQQSjywnTV+b+Fz
ta2mRULmaTyAMuzDwd8a5rYlo3kzv9J1Yh414MC6YRd1zcowu4lvEci9s3qTyJkX
N2LY7zun2ecVllnppO2e1YL8NlxnYbviSquk5t/49GYH3uIicN0wZmkUnwgl9DGz
ynuL11fVIxkv3BC8F6/gGWQJnFviqMrI75qwFqAqiCkvojOeW9lV06dx8se16nOt
XsDHs8hLTP6DcHXQ7eMJFnq1KpEgWDmftd00dXku7Dv8fQ8H2G9pXTGYEkH8oi8B
n5woYXFZ1CtkI17CbFJVUCUeoUWFFCvkYX66FuauObKrEG1iZ3a6Os3E3dmmTHv5
AgMBAAEwDQYJKoZIhvcNAQELBQADggIBABMzoqndNTU0pA4UGNLwUCWgtqImLieP
reWQ1E4u4CesvRuCZ9KHIFarcdLhK018oxUPYruf8dmt/avhGV7X6cf+s6d2EvMQ
Ss5v78+8Zgcksbdow70PAlVdz4bciqjiQrPFJ5DZey39YA7US8SzKWoi8iwEyOOF
3lE//UEtwP8A32X75jFwe8h05iza3VgW2/6KfNsKuFn9xoJKD40eFyVefiR+2fTP
UeGITaxY/5exbOWFbVByQQDeW6spOr1oSEtLf1oLk7uPZJ564pbUv8T5ja39liCg
pj4HYDzHatPRzsEUmbdJLpHLFgvjqzUq+Ym1BAUlzgRJrcBvHP+VSViV53PiexsH
WUoGiNrhPZS3g53/tNTTHMBOHTCHnzDM8d0eDzaLvY20EXQNnDor9jQxtqeHwLiP
Ik3Y8WaLqK0R0xPFEleRgKyJHBLByhk36D2+HJdFhG4hDuBVBTBMbGA4zjUSLTfr
+xMTtGNay05BLr+Fo0nH4oJE6wGA9ILjiiKuWdA9PCLHT+t6+R3AJmp7rz7/hzR9
Acz5MDeKUgg6a6v7B7sjQGV9euHc5tHbchZd6oePrMOP162YoNg/X0MAdJ6LCmSi
yPnf5qCcVIXWzqxgl6x6oM7Mh91NPEaZNopWJY1SbOBbsFTieyyHLaJEU/J+0R+a
sBcVz9WLCmvX
-----END CERTIFICATE-----
