Certificate:
    Data:
        Version: 1 (0x0)
        Serial Number: 1 (0x1)
        Signature Algorithm: sha256WithRSAEncryption
        Issuer: CN=AGULE
        Validity
            Not Before: May 26 23:05:15 2026 GMT
            Not After : May 26 23:05:15 2027 GMT
        Subject: CN=mario3
        Subject Public Key Info:
            Public Key Algorithm: rsaEncryption
                Public-Key: (2048 bit)
                Modulus:
                    00:b2:94:48:c3:8a:8d:1d:eb:a6:17:57:e6:ee:25:
                    56:96:20:ad:5e:3f:84:f0:39:7b:7d:c4:27:ef:a1:
                    36:ef:84:39:fd:c4:08:3b:34:9b:19:35:25:7e:44:
                    2d:c2:d0:4b:03:cb:6e:dc:aa:ba:ca:fb:a2:06:7b:
                    9d:e5:28:53:22:58:48:13:2f:6e:70:02:54:e9:ee:
                    63:a3:fe:06:58:b2:b0:28:d8:cc:05:e4:27:a0:a2:
                    05:85:46:07:b4:4b:55:db:be:32:c4:60:16:56:4d:
                    83:71:36:bf:57:ee:75:7b:33:85:15:61:dc:28:0e:
                    ec:63:4d:e0:a6:d9:11:33:cf:8d:33:26:68:29:e5:
                    2b:ab:77:88:77:aa:d3:e5:a9:da:b3:d8:7b:3a:82:
                    2b:fb:64:d8:12:d8:35:03:85:04:3b:48:d2:80:5a:
                    fe:ac:f3:63:2b:79:5e:12:2d:d2:e1:14:4c:c1:0d:
                    02:8c:a1:3e:24:cd:39:9c:ed:b6:48:0c:21:f3:b2:
                    94:72:4b:f1:65:05:81:76:e0:cd:61:d1:7f:3f:9f:
                    b9:fb:93:34:74:90:40:01:b3:40:bc:17:ea:90:fa:
                    c3:62:40:fe:b4:dd:fc:b9:1e:a4:fc:8c:ac:0f:3f:
                    a6:09:3c:8e:ef:53:d0:ef:f9:07:9d:b8:3d:85:c1:
                    0d:ad
                Exponent: 65537 (0x10001)
    Signature Algorithm: sha256WithRSAEncryption
    Signature Value:
        93:e6:13:63:ac:02:7e:23:df:ec:01:03:51:1d:b4:d1:d0:1d:
        8b:71:74:17:cc:ee:bd:57:0e:be:49:6e:51:00:ce:31:df:fd:
        a9:d9:78:99:27:24:55:3f:fc:c4:92:ad:90:c8:86:1d:1f:ed:
        26:a3:44:fb:8f:99:91:ab:fc:fd:40:06:93:04:99:63:64:15:
        16:c1:7f:f6:2e:d5:06:3a:79:9b:c7:46:5b:70:8a:c8:a6:d4:
        98:5a:ac:15:71:48:b3:3a:e6:a8:05:a1:30:0c:eb:ce:0d:c1:
        55:a4:58:81:df:95:08:8d:90:14:4d:07:15:20:3d:a5:16:cf:
        eb:82:cc:0f:6d:92:06:61:5b:f5:47:21:99:1d:37:d6:f0:71:
        ce:24:71:d1:01:af:cf:66:5d:37:b1:db:d0:77:c1:f3:7c:6c:
        85:d6:3d:81:f5:3a:07:f7:77:30:3e:44:0b:05:79:31:64:0b:
        6b:fa:00:1c:9e:6c:b5:18:66:d0:47:8d:00:63:d0:c1:58:df:
        27:67:bc:1d:d7:f3:4f:b3:37:09:f1:60:82:16:b8:eb:7e:aa:
        cd:61:91:4b:42:b6:c0:e2:f1:c0:29:f3:36:ba:53:f3:a9:b5:
        36:e0:f1:2c:ca:4a:69:6f:b7:fa:95:92:af:fa:ee:99:a8:54:
        62:bb:20:05:33:9a:79:3a:b0:ef:56:3d:f0:93:32:70:1f:4b:
        b6:50:7f:06:52:b7:6a:b2:88:3b:00:0b:70:a7:20:34:95:96:
        9f:20:a3:cc:c7:13:09:72:03:ba:54:6f:52:75:3a:2e:17:0d:
        4b:4b:8c:38:c2:31:d8:73:f7:1a:5f:45:e3:0c:b9:2e:cf:f2:
        7a:c1:c9:4b:ea:f4:2b:24:4f:a7:9a:6e:e0:ad:5a:2f:03:b4:
        ad:bb:0b:b9:74:24:a0:74:06:a2:6a:4e:db:9b:91:06:65:8a:
        52:ff:fd:c3:4f:77:eb:41:e8:1e:20:c7:bb:6f:47:48:fb:39:
        eb:de:b5:54:dd:88:05:98:33:37:56:21:d7:84:d3:0e:c8:2f:
        be:80:a3:1d:3d:94:30:55:80:af:8f:54:45:1f:ab:3a:0a:e2:
        c1:64:f2:72:a7:70:17:b5:61:de:4f:7a:83:92:a9:86:13:f4:
        c4:ef:c8:c9:c4:c3:cb:bf:bc:e0:7b:dc:80:5b:33:e6:4a:5d:
        6c:f4:e0:24:1e:af:7d:6f:64:15:af:22:c9:e3:aa:c8:77:bc:
        14:48:9b:11:f1:35:5f:f5:35:69:aa:16:b4:8a:13:4b:27:5d:
        05:56:de:d3:c3:bc:32:40:f1:f2:1c:e6:92:48:f0:7b:76:a4:
        91:0a:32:fd:34:44:83:d9
-----BEGIN CERTIFICATE-----
MIIDlTCCAX0CAQEwDQYJKoZIhvcNAQELBQAwEDEOMAwGA1UEAwwFQUdVTEUwHhcN
MjYwNTI2MjMwNTE1WhcNMjcwNTI2MjMwNTE1WjARMQ8wDQYDVQQDDAZtYXJpbzMw
ggEiMA0GCSqGSIb3DQEBAQUAA4IBDwAwggEKAoIBAQCylEjDio0d66YXV+buJVaW
IK1eP4TwOXt9xCfvoTbvhDn9xAg7NJsZNSV+RC3C0EsDy27cqrrK+6IGe53lKFMi
WEgTL25wAlTp7mOj/gZYsrAo2MwF5CegogWFRge0S1XbvjLEYBZWTYNxNr9X7nV7
M4UVYdwoDuxjTeCm2REzz40zJmgp5Surd4h3qtPlqdqz2Hs6giv7ZNgS2DUDhQQ7
SNKAWv6s82MreV4SLdLhFEzBDQKMoT4kzTmc7bZIDCHzspRyS/FlBYF24M1h0X8/
n7n7kzR0kEABs0C8F+qQ+sNiQP603fy5HqT8jKwPP6YJPI7vU9Dv+QeduD2FwQ2t
AgMBAAEwDQYJKoZIhvcNAQELBQADggIBAJPmE2OsAn4j3+wBA1EdtNHQHYtxdBfM
7r1XDr5JblEAzjHf/anZeJknJFU//MSSrZDIhh0f7SajRPuPmZGr/P1ABpMEmWNk
FRbBf/Yu1QY6eZvHRltwisim1JharBVxSLM65qgFoTAM684NwVWkWIHflQiNkBRN
BxUgPaUWz+uCzA9tkgZhW/VHIZkdN9bwcc4kcdEBr89mXTex29B3wfN8bIXWPYH1
Ogf3dzA+RAsFeTFkC2v6AByebLUYZtBHjQBj0MFY3ydnvB3X80+zNwnxYIIWuOt+
qs1hkUtCtsDi8cAp8za6U/OptTbg8SzKSmlvt/qVkq/67pmoVGK7IAUzmnk6sO9W
PfCTMnAfS7ZQfwZSt2qyiDsAC3CnIDSVlp8go8zHEwlyA7pUb1J1Oi4XDUtLjDjC
Mdhz9xpfReMMuS7P8nrByUvq9CskT6eabuCtWi8DtK27C7l0JKB0BqJqTtubkQZl
ilL//cNPd+tB6B4gx7tvR0j7OevetVTdiAWYMzdWIdeE0w7IL76Aox09lDBVgK+P
VEUfqzoK4sFk8nKncBe1Yd5PeoOSqYYT9MTvyMnEw8u/vOB73IBbM+ZKXWz04CQe
r31vZBWvIsnjqsh3vBRImxHxNV/1NWmqFrSKE0snXQVW3tPDvDJA8fIc5pJI8Ht2
pJEKMv00RIPZ
-----END CERTIFICATE-----
