Certificate:
    Data:
        Version: 1 (0x0)
        Serial Number: 2 (0x2)
        Signature Algorithm: sha256WithRSAEncryption
        Issuer: CN=AGULE
        Validity
            Not Before: May 26 23:22:25 2026 GMT
            Not After : May 26 23:22:25 2027 GMT
        Subject: CN=mario4
        Subject Public Key Info:
            Public Key Algorithm: rsaEncryption
                Public-Key: (2048 bit)
                Modulus:
                    00:c1:3e:39:99:85:7a:cd:59:2c:aa:bf:4f:01:0e:
                    17:59:94:de:03:84:c8:89:e3:a6:a6:79:44:d3:59:
                    0a:ad:ca:46:07:95:04:bb:34:ee:1c:06:56:fd:16:
                    fe:f2:68:8c:06:7f:9e:6c:eb:71:ca:09:b9:78:57:
                    52:f4:71:12:21:a9:af:15:11:d8:ba:4b:56:fe:ee:
                    20:8e:f7:11:13:55:f7:6d:52:d6:87:19:62:0a:6c:
                    24:24:73:4f:22:33:ef:3b:cb:ff:74:5c:4d:6f:0e:
                    7a:e2:1c:1e:59:05:ba:68:85:d4:13:e3:8b:bf:12:
                    4a:d4:c4:23:a2:83:dd:56:b7:9e:98:98:fb:ce:17:
                    28:05:eb:87:95:e4:db:9d:b5:f8:c3:3b:8a:9a:21:
                    b9:12:8e:92:f1:15:3d:7e:d7:11:9e:8d:ed:e8:9c:
                    70:b0:c5:ea:4c:a2:8d:88:eb:29:7e:95:6e:df:92:
                    3b:36:05:3f:28:41:2c:c1:2d:5d:c6:81:27:65:60:
                    b4:5b:37:d5:75:cf:7e:ab:e7:6c:91:3b:a2:01:b1:
                    e1:c6:45:5b:4e:4f:1f:5a:d0:6a:d0:43:99:33:92:
                    e2:21:fa:eb:cd:49:53:43:c0:ac:68:25:5c:e7:f8:
                    8e:b5:8d:11:33:8a:c5:eb:99:66:ca:da:e0:06:f2:
                    f4:4d
                Exponent: 65537 (0x10001)
    Signature Algorithm: sha256WithRSAEncryption
    Signature Value:
        32:0a:dc:37:89:4c:31:e7:00:59:8d:e7:ee:1c:8d:f1:3e:4e:
        3e:5f:fb:6e:6e:c4:25:63:a8:b5:3a:2d:a3:a8:65:eb:7b:c1:
        6d:33:53:54:3a:b4:ce:9b:93:3c:ef:33:5f:10:b4:b2:47:73:
        3b:5a:87:db:b2:78:41:0e:0b:63:58:f7:fe:a2:c2:81:f6:d5:
        1e:bc:b6:84:4a:97:9f:37:05:42:36:59:91:cc:77:59:89:b6:
        98:05:0f:ce:d3:74:c7:0a:44:77:0f:10:8a:2b:6e:c1:b6:ed:
        d7:4d:9a:e6:41:69:99:66:64:ab:b0:7c:c9:54:f7:75:5d:b0:
        52:d2:9a:13:9d:22:5a:c6:0c:20:ee:c4:82:a9:a7:e1:1f:f8:
        53:60:65:d0:52:31:f3:f9:2b:06:ce:0d:fe:96:35:2d:c3:29:
        94:1a:b1:8e:b3:c2:f7:0f:44:df:c0:65:8d:8e:85:9e:95:a7:
        2a:f8:39:ac:d9:b1:48:32:32:ce:8a:0e:f9:91:0b:84:c9:f6:
        33:00:ac:ea:2e:2a:0c:6d:63:6f:cc:48:a6:f1:a3:f6:36:51:
        b3:d8:73:6f:68:39:92:7c:28:32:92:40:55:ed:c4:36:52:22:
        b0:d8:42:9d:22:57:24:13:77:e7:f0:fd:9c:63:38:c6:d2:ee:
        67:b5:6b:88:65:1f:92:78:56:a9:ea:43:9f:c8:fc:20:e0:c4:
        3d:dd:54:99:91:d2:d8:8f:29:43:e0:fd:f9:3a:9d:04:a0:59:
        63:f2:01:05:67:5f:d9:b1:e2:92:67:56:62:23:4f:75:65:e5:
        76:d3:a9:0c:dc:e3:49:f2:f1:6e:60:a5:ea:16:bb:cd:70:17:
        01:b0:31:13:b7:26:3f:19:ec:ac:83:9b:1d:a3:2f:13:63:85:
        b3:e9:57:fb:e0:26:9c:8d:3b:8a:12:76:0b:4c:b5:2d:ae:55:
        9e:87:b3:0f:7d:00:54:90:c2:5f:6e:56:a1:ba:8e:86:28:df:
        11:32:69:22:b4:ba:20:0e:82:9a:a2:be:c5:e7:0e:ea:08:5b:
        d2:93:9b:ca:7a:f6:21:a4:40:32:53:cf:68:d7:65:e6:5e:29:
        b1:d0:ba:3b:d1:1f:40:76:e3:0e:3f:d2:c7:1e:22:b8:9a:08:
        08:07:a1:77:c1:6b:34:e0:b6:aa:92:48:3d:88:19:aa:39:92:
        8d:85:81:5c:8e:2c:ec:c6:24:4e:74:cc:a6:5b:f0:59:5f:68:
        d6:e1:64:f2:0a:73:af:6f:44:6b:86:05:f4:5b:b0:f2:d1:f2:
        8f:8f:e3:9c:f5:ce:c6:ce:61:ab:67:5e:ed:38:af:a4:1b:1a:
        5b:11:23:04:7a:f4:5c:30
-----BEGIN CERTIFICATE-----
MIIDlTCCAX0CAQIwDQYJKoZIhvcNAQELBQAwEDEOMAwGA1UEAwwFQUdVTEUwHhcN
MjYwNTI2MjMyMjI1WhcNMjcwNTI2MjMyMjI1WjARMQ8wDQYDVQQDDAZtYXJpbzQw
ggEiMA0GCSqGSIb3DQEBAQUAA4IBDwAwggEKAoIBAQDBPjmZhXrNWSyqv08BDhdZ
lN4DhMiJ46ameUTTWQqtykYHlQS7NO4cBlb9Fv7yaIwGf55s63HKCbl4V1L0cRIh
qa8VEdi6S1b+7iCO9xETVfdtUtaHGWIKbCQkc08iM+87y/90XE1vDnriHB5ZBbpo
hdQT44u/EkrUxCOig91Wt56YmPvOFygF64eV5NudtfjDO4qaIbkSjpLxFT1+1xGe
je3onHCwxepMoo2I6yl+lW7fkjs2BT8oQSzBLV3GgSdlYLRbN9V1z36r52yRO6IB
seHGRVtOTx9a0GrQQ5kzkuIh+uvNSVNDwKxoJVzn+I61jREzisXrmWbK2uAG8vRN
AgMBAAEwDQYJKoZIhvcNAQELBQADggIBADIK3DeJTDHnAFmN5+4cjfE+Tj5f+25u
xCVjqLU6LaOoZet7wW0zU1Q6tM6bkzzvM18QtLJHcztah9uyeEEOC2NY9/6iwoH2
1R68toRKl583BUI2WZHMd1mJtpgFD87TdMcKRHcPEIorbsG27ddNmuZBaZlmZKuw
fMlU93VdsFLSmhOdIlrGDCDuxIKpp+Ef+FNgZdBSMfP5KwbODf6WNS3DKZQasY6z
wvcPRN/AZY2OhZ6Vpyr4OazZsUgyMs6KDvmRC4TJ9jMArOouKgxtY2/MSKbxo/Y2
UbPYc29oOZJ8KDKSQFXtxDZSIrDYQp0iVyQTd+fw/ZxjOMbS7me1a4hlH5J4Vqnq
Q5/I/CDgxD3dVJmR0tiPKUPg/fk6nQSgWWPyAQVnX9mx4pJnVmIjT3Vl5XbTqQzc
40ny8W5gpeoWu81wFwGwMRO3Jj8Z7KyDmx2jLxNjhbPpV/vgJpyNO4oSdgtMtS2u
VZ6Hsw99AFSQwl9uVqG6joYo3xEyaSK0uiAOgpqivsXnDuoIW9KTm8p69iGkQDJT
z2jXZeZeKbHQujvRH0B24w4/0sceIriaCAgHoXfBazTgtqqSSD2IGao5ko2FgVyO
LOzGJE50zKZb8FlfaNbhZPIKc69vRGuGBfRbsPLR8o+P45z1zsbOYatnXu04r6Qb
GlsRIwR69Fww
-----END CERTIFICATE-----
