Certificate:
    Data:
        Version: 1 (0x0)
        Serial Number: 2 (0x2)
        Signature Algorithm: sha256WithRSAEncryption
        Issuer: CN=ca
        Validity
            Not Before: Dec  7 10:15:44 2024 GMT
            Not After : Dec  7 10:15:44 2025 GMT
        Subject: CN=jorge
        Subject Public Key Info:
            Public Key Algorithm: rsaEncryption
                Public-Key: (2048 bit)
                Modulus:
                    00:9f:cb:9c:17:ea:d9:bd:55:f4:ba:4b:7b:b9:88:
                    12:d8:85:55:8a:c9:0d:40:db:e1:52:42:fa:25:93:
                    43:b9:27:db:08:9f:b1:c4:34:89:e8:66:da:92:c3:
                    1b:6b:30:4e:2e:33:91:b7:a1:bf:4f:f2:f2:45:9b:
                    c8:9b:bd:bf:06:fb:2c:61:be:6e:57:02:b8:3e:bc:
                    65:3c:9a:a6:2d:18:3a:1e:e3:ba:92:ab:75:27:8f:
                    e3:a0:fc:a0:85:7c:bd:a6:24:11:e1:bc:30:f1:9f:
                    b4:42:cb:f1:86:7f:01:2d:47:84:0c:8c:63:6a:0f:
                    9a:00:6b:bd:b5:a3:ac:d5:71:10:f4:f2:3d:2e:73:
                    f3:7f:71:c7:28:c1:ad:8a:bf:bf:22:b4:be:9c:c4:
                    3d:48:e8:80:16:0d:2f:fb:6c:09:54:43:52:1d:17:
                    0b:dc:3a:83:17:31:78:5a:a3:06:74:b0:b8:94:92:
                    8e:eb:a8:ce:16:56:99:b9:30:53:56:26:2b:2c:a8:
                    44:51:f3:a4:a7:43:79:d8:fd:7a:d7:0d:e7:75:fe:
                    7b:aa:c0:8f:dc:d5:11:61:cb:ee:5b:1f:a6:f5:7a:
                    12:c4:fa:80:01:3d:ab:fa:2b:8b:44:bc:59:59:6f:
                    7d:af:96:7e:8f:ab:9c:e5:08:35:fa:c5:5b:d1:03:
                    5d:c5
                Exponent: 65537 (0x10001)
    Signature Algorithm: sha256WithRSAEncryption
    Signature Value:
        0d:31:23:44:16:02:a2:d1:a9:cc:83:d8:c4:54:d2:8d:a9:b9:
        94:40:bb:8a:a6:48:08:c5:ce:c5:ea:44:81:ca:4d:de:36:e2:
        5f:b5:5f:30:37:78:37:58:e0:de:04:c9:4c:cd:06:af:00:d4:
        0c:06:22:a8:b8:51:12:82:82:1b:c5:41:54:09:bc:ea:17:c9:
        04:d7:49:50:08:81:03:52:bc:a0:0b:16:2e:54:50:2c:13:c2:
        bb:ab:c1:89:50:1f:73:af:25:1f:fc:f0:b3:95:f3:55:c9:b2:
        1a:86:b7:44:84:03:46:23:0b:63:26:91:5b:12:a8:18:1b:b3:
        aa:09:dd:dc:96:1b:a5:36:fb:83:fa:45:fe:e0:20:49:39:09:
        54:92:80:11:8f:bf:ef:d7:07:db:3c:49:b4:5b:c1:19:84:c3:
        bd:39:3f:c4:fe:6c:bc:ea:fb:f8:17:fc:2e:b0:7d:6d:da:fa:
        47:9e:31:d0:1a:dd:0d:3e:12:94:97:49:31:69:af:56:69:54:
        44:52:ff:30:92:9c:91:74:1f:d5:cc:c8:a9:5b:e1:b3:a2:49:
        cb:d1:3d:bf:00:ea:da:7e:8d:16:2d:b7:63:5e:25:17:7a:2a:
        2d:27:84:32:40:fa:4a:8d:24:15:8f:13:bb:0b:06:35:47:4e:
        79:51:25:82
-----BEGIN CERTIFICATE-----
MIICkTCCAXkCAQIwDQYJKoZIhvcNAQELBQAwDTELMAkGA1UEAwwCY2EwHhcNMjQx
MjA3MTAxNTQ0WhcNMjUxMjA3MTAxNTQ0WjAQMQ4wDAYDVQQDDAVqb3JnZTCCASIw
DQYJKoZIhvcNAQEBBQADggEPADCCAQoCggEBAJ/LnBfq2b1V9LpLe7mIEtiFVYrJ
DUDb4VJC+iWTQ7kn2wifscQ0iehm2pLDG2swTi4zkbehv0/y8kWbyJu9vwb7LGG+
blcCuD68ZTyapi0YOh7jupKrdSeP46D8oIV8vaYkEeG8MPGftELL8YZ/AS1HhAyM
Y2oPmgBrvbWjrNVxEPTyPS5z839xxyjBrYq/vyK0vpzEPUjogBYNL/tsCVRDUh0X
C9w6gxcxeFqjBnSwuJSSjuuozhZWmbkwU1YmKyyoRFHzpKdDedj9etcN53X+e6rA
j9zVEWHL7lsfpvV6EsT6gAE9q/ori0S8WVlvfa+Wfo+rnOUINfrFW9EDXcUCAwEA
ATANBgkqhkiG9w0BAQsFAAOCAQEADTEjRBYCotGpzIPYxFTSjam5lEC7iqZICMXO
xepEgcpN3jbiX7VfMDd4N1jg3gTJTM0GrwDUDAYiqLhREoKCG8VBVAm86hfJBNdJ
UAiBA1K8oAsWLlRQLBPCu6vBiVAfc68lH/zws5XzVcmyGoa3RIQDRiMLYyaRWxKo
GBuzqgnd3JYbpTb7g/pF/uAgSTkJVJKAEY+/79cH2zxJtFvBGYTDvTk/xP5svOr7
+Bf8LrB9bdr6R54x0BrdDT4SlJdJMWmvVmlURFL/MJKckXQf1czIqVvhs6JJy9E9
vwDq2n6NFi23Y14lF3oqLSeEMkD6So0kFY8TuwsGNUdOeVElgg==
-----END CERTIFICATE-----
