Certificate:
    Data:
        Version: 1 (0x0)
        Serial Number: 2 (0x2)
        Signature Algorithm: sha256WithRSAEncryption
        Issuer: CN=AGULE
        Validity
            Not Before: Apr 25 12:09:36 2026 GMT
            Not After : Apr 25 12:09:36 2027 GMT
        Subject: CN=mario2
        Subject Public Key Info:
            Public Key Algorithm: rsaEncryption
                Public-Key: (2048 bit)
                Modulus:
                    00:c6:0e:f1:59:e5:92:50:20:b3:6c:47:0e:36:eb:
                    f4:e5:e6:6e:73:50:9a:03:9c:68:61:2f:75:bc:34:
                    10:85:4b:ff:e3:12:88:4e:60:7c:ec:ce:b5:76:98:
                    8e:3c:27:9a:f9:e7:94:6e:e8:da:02:b4:26:fc:7c:
                    2c:49:d0:d7:bd:f3:76:32:90:3b:62:85:aa:bd:68:
                    63:fb:45:3e:10:19:da:0c:07:45:64:ad:76:09:a4:
                    7f:bd:e9:22:0d:5d:12:49:9d:0b:cf:98:ef:93:24:
                    0f:d5:5f:34:05:2d:d2:91:fa:43:a4:7c:aa:4a:f7:
                    3b:27:4c:60:b7:82:46:d9:0c:ba:de:67:7a:b6:92:
                    6b:2d:6d:c0:86:4f:37:c3:60:f0:76:0b:a4:fa:5e:
                    5b:48:05:d2:f1:ab:e1:76:f9:dd:05:5e:8d:28:a0:
                    0d:c4:b2:14:07:0a:ce:e8:6d:68:63:b9:58:91:43:
                    aa:f1:fb:ad:46:cf:31:70:71:fb:67:87:73:36:e8:
                    5c:53:04:14:b3:44:a2:27:53:81:a5:6f:e5:0e:80:
                    3b:37:f6:9e:77:27:dc:a6:2b:98:aa:6b:c4:b1:98:
                    50:e9:8f:76:2e:83:41:34:02:17:74:75:35:be:3d:
                    40:ee:91:1e:f4:2d:32:a2:64:09:a8:9a:01:e1:3f:
                    30:0b
                Exponent: 65537 (0x10001)
    Signature Algorithm: sha256WithRSAEncryption
    Signature Value:
        96:ff:46:38:ff:2c:83:19:d0:c5:ca:23:64:af:b9:7a:4e:5b:
        8c:0c:e7:e8:ae:a4:4c:39:cd:30:2c:08:1d:cf:e0:8c:90:ec:
        80:ed:ba:05:84:74:1c:d4:02:36:30:c0:f1:a7:9b:f6:78:22:
        fb:8f:b0:41:86:58:4b:74:80:df:3b:93:40:96:6e:4f:ef:72:
        e7:5e:a8:ad:87:12:d9:9a:55:83:6a:b9:41:d1:a2:eb:a3:5b:
        a9:84:c7:73:95:95:b7:dc:86:88:cb:b0:c7:63:de:db:63:d1:
        36:c5:f5:a7:f0:94:7a:d4:7a:f2:63:c3:01:69:40:56:19:0f:
        b5:4f:fd:b9:43:1d:73:de:0d:30:a7:f8:e2:d4:35:d1:ba:4b:
        1b:b8:34:5d:80:11:a0:ba:e9:e8:2f:ef:e5:3f:38:b7:20:e5:
        a7:e6:9d:b9:9c:e4:bf:83:61:6e:de:5d:5d:ac:29:d4:40:73:
        cd:33:40:c7:4b:f9:06:72:be:f0:2a:37:ad:63:77:72:0d:e3:
        07:22:14:34:d1:4e:d8:d2:9b:13:60:27:6b:b8:f3:06:cb:f6:
        05:69:c2:90:7d:e8:ec:ef:35:ab:df:94:12:1a:3d:25:c6:3a:
        4c:1d:af:9e:96:80:62:ee:b5:ee:79:93:6f:4e:bb:9b:42:6e:
        62:d0:92:b2:17:99:d8:74:13:50:11:a2:d6:98:af:ce:67:7b:
        97:0a:4a:c7:fe:84:4b:a3:6c:9e:7c:f5:11:d1:34:fd:65:fe:
        06:12:22:6a:56:25:8d:c9:4c:73:f5:2b:b8:99:95:e1:88:02:
        34:c8:66:6b:02:48:1d:4c:b4:d3:1c:3b:4c:dd:06:52:d4:51:
        6e:ce:8e:82:55:7c:ad:cd:56:24:92:b0:0c:98:00:41:b7:e2:
        48:79:7d:5c:27:8f:f8:39:69:60:5f:b1:e9:66:53:04:46:13:
        c9:67:85:a7:b0:fb:ef:2c:4e:cd:54:3d:07:11:ea:48:ff:94:
        93:f9:44:07:eb:f4:1d:18:3e:d6:71:ee:31:3e:89:3d:49:9c:
        c7:16:6d:3a:98:46:e8:c8:6c:ca:32:a7:c7:f7:47:7c:d1:58:
        d5:7f:4a:d3:3d:0e:24:d5:77:79:72:30:66:fd:6e:63:0a:52:
        71:ca:74:64:aa:e4:a7:11:7c:38:e3:d9:88:6b:95:ca:5f:7d:
        aa:89:ff:03:cd:04:00:89:f3:bc:48:c5:30:79:a5:bc:80:a1:
        84:e4:5a:5e:b0:f8:a9:5c:59:05:65:f5:8d:50:fd:c6:17:5c:
        9b:1d:73:27:a0:53:11:86:59:a9:4a:cc:b7:b6:47:d0:cf:87:
        a8:7f:e3:9d:68:dc:76:3e
-----BEGIN CERTIFICATE-----
MIIDlTCCAX0CAQIwDQYJKoZIhvcNAQELBQAwEDEOMAwGA1UEAwwFQUdVTEUwHhcN
MjYwNDI1MTIwOTM2WhcNMjcwNDI1MTIwOTM2WjARMQ8wDQYDVQQDDAZtYXJpbzIw
ggEiMA0GCSqGSIb3DQEBAQUAA4IBDwAwggEKAoIBAQDGDvFZ5ZJQILNsRw426/Tl
5m5zUJoDnGhhL3W8NBCFS//jEohOYHzszrV2mI48J5r555Ru6NoCtCb8fCxJ0Ne9
83YykDtihaq9aGP7RT4QGdoMB0VkrXYJpH+96SINXRJJnQvPmO+TJA/VXzQFLdKR
+kOkfKpK9zsnTGC3gkbZDLreZ3q2kmstbcCGTzfDYPB2C6T6XltIBdLxq+F2+d0F
Xo0ooA3EshQHCs7obWhjuViRQ6rx+61GzzFwcftnh3M26FxTBBSzRKInU4Glb+UO
gDs39p53J9ymK5iqa8SxmFDpj3Yug0E0Ahd0dTW+PUDukR70LTKiZAmomgHhPzAL
AgMBAAEwDQYJKoZIhvcNAQELBQADggIBAJb/Rjj/LIMZ0MXKI2SvuXpOW4wM5+iu
pEw5zTAsCB3P4IyQ7IDtugWEdBzUAjYwwPGnm/Z4IvuPsEGGWEt0gN87k0CWbk/v
cudeqK2HEtmaVYNquUHRouujW6mEx3OVlbfchojLsMdj3ttj0TbF9afwlHrUevJj
wwFpQFYZD7VP/blDHXPeDTCn+OLUNdG6Sxu4NF2AEaC66egv7+U/OLcg5afmnbmc
5L+DYW7eXV2sKdRAc80zQMdL+QZyvvAqN61jd3IN4wciFDTRTtjSmxNgJ2u48wbL
9gVpwpB96OzvNavflBIaPSXGOkwdr56WgGLute55k29Ou5tCbmLQkrIXmdh0E1AR
otaYr85ne5cKSsf+hEujbJ589RHRNP1l/gYSImpWJY3JTHP1K7iZleGIAjTIZmsC
SB1MtNMcO0zdBlLUUW7OjoJVfK3NViSSsAyYAEG34kh5fVwnj/g5aWBfselmUwRG
E8lnhaew++8sTs1UPQcR6kj/lJP5RAfr9B0YPtZx7jE+iT1JnMcWbTqYRujIbMoy
p8f3R3zRWNV/StM9DiTVd3lyMGb9bmMKUnHKdGSq5KcRfDjj2YhrlcpffaqJ/wPN
BACJ87xIxTB5pbyAoYTkWl6w+KlcWQVl9Y1Q/cYXXJsdcyegUxGGWalKzLe2R9DP
h6h/451o3HY+
-----END CERTIFICATE-----
