Certificate:
    Data:
        Version: 1 (0x0)
        Serial Number: 2 (0x2)
        Signature Algorithm: sha256WithRSAEncryption
        Issuer: CN=AGULE
        Validity
            Not Before: Apr  8 18:50:29 2026 GMT
            Not After : Apr  8 18:50:29 2027 GMT
        Subject: CN=mario1
        Subject Public Key Info:
            Public Key Algorithm: rsaEncryption
                Public-Key: (2048 bit)
                Modulus:
                    00:c1:fc:32:a3:c6:b4:17:55:b3:55:b7:71:77:a3:
                    e3:80:76:4a:da:cb:3c:77:36:fa:bb:b1:0b:db:8a:
                    6a:90:5b:0e:01:06:95:8f:ca:89:23:68:08:ab:16:
                    96:16:04:5f:f9:ee:58:e5:df:a6:a1:e6:0d:19:60:
                    5d:da:ea:58:38:61:94:b8:e9:d9:b4:e8:b5:01:eb:
                    f5:49:1f:ca:bb:32:b0:b9:b2:51:e0:a9:20:9e:95:
                    90:ab:34:e8:72:f2:71:7c:85:3c:46:15:3b:0a:f0:
                    04:f1:9f:9b:22:ef:24:98:ad:6c:aa:85:8e:31:22:
                    2f:c2:b2:9e:63:ae:a8:fb:f5:86:6a:c2:0c:20:df:
                    44:ca:bf:3d:59:80:d2:ac:a3:fd:d6:ea:0f:25:c2:
                    60:54:07:dd:a1:e4:d6:c6:c6:a3:32:91:83:a7:54:
                    2b:b9:05:22:9f:bf:f3:6f:53:59:71:66:98:ac:38:
                    7d:22:44:23:c0:3d:b0:4d:d2:dd:07:4c:49:16:fe:
                    6a:e6:67:fc:18:be:9f:ae:f7:8c:e8:9c:ad:bb:a9:
                    ba:e7:a3:00:8e:6e:82:32:c9:e4:cf:ef:67:eb:14:
                    78:6c:9d:0e:e1:f2:5f:d8:35:5c:7c:af:0e:22:b9:
                    81:d1:9a:e3:74:49:94:e1:af:20:42:11:03:98:09:
                    16:07
                Exponent: 65537 (0x10001)
    Signature Algorithm: sha256WithRSAEncryption
    Signature Value:
        2c:f0:3c:03:72:0a:16:0c:d4:24:48:71:50:0e:a0:ed:32:99:
        cb:70:54:fb:53:58:b7:df:04:00:51:25:cb:76:12:35:5d:ae:
        4e:a0:49:5b:04:e7:48:12:d1:6d:d4:57:39:93:95:27:16:27:
        ce:e9:27:cf:38:25:62:56:1d:d0:12:0d:c4:9c:6b:d7:13:80:
        9f:69:b7:32:b5:d7:c5:c8:03:25:40:48:74:ea:6e:ef:f0:23:
        37:1b:c4:99:76:d4:e4:d9:9b:b2:29:5a:a3:35:76:f7:b3:6f:
        dc:c6:3f:1c:a3:b4:83:9f:a4:4f:4e:7e:0e:18:1e:24:ad:d3:
        32:ea:ad:89:ef:6d:c5:98:f7:db:50:d9:2e:93:eb:2f:53:6d:
        6a:f3:f1:4d:2a:ea:56:fb:ef:85:62:17:17:86:11:5b:28:16:
        fd:60:ee:47:bb:22:6e:89:1c:9e:2b:cf:cc:5a:78:52:16:9b:
        f3:9b:61:f0:7a:6d:fa:02:e9:53:4c:45:c4:78:0b:56:ef:56:
        b9:16:24:96:c6:6c:e2:14:2a:00:dc:b3:eb:a5:bd:f3:be:fd:
        18:49:e2:30:c0:c0:21:8d:77:1e:d1:25:b2:a9:12:7e:9a:dc:
        1b:d3:3f:6b:e7:98:3a:3e:e8:a0:63:d3:6d:dc:4e:42:d7:5f:
        e7:30:c2:41:c7:76:63:c8:5a:e9:7e:0f:64:7e:ea:eb:1e:64:
        8d:a9:c1:c7:6c:37:39:35:b2:1d:20:dd:cc:76:83:93:2c:f3:
        4d:f0:8b:b9:11:0b:de:2f:16:6e:f0:7e:f5:c5:23:e7:ad:00:
        b7:2f:0f:19:ef:10:e2:11:b2:38:dc:c7:4c:2f:83:33:a6:7e:
        d2:2a:4f:e1:b4:ca:2d:28:d8:7c:06:bc:5f:90:60:c3:f5:27:
        5a:1d:20:61:d3:86:e0:02:15:cc:0d:1c:bd:e5:c8:ce:7e:a0:
        39:a7:73:58:db:08:04:39:74:3e:73:15:e0:7b:61:8e:e5:5d:
        e5:d3:ad:de:9a:ba:e6:38:4c:f8:e3:86:8b:81:dc:da:8d:c2:
        1e:5c:95:b9:ce:28:80:cd:58:c1:ac:e4:3a:a5:f5:6d:6c:93:
        02:3f:a7:1e:cf:3c:61:9a:43:2f:73:37:6f:3a:f3:b1:f5:49:
        64:ca:b2:d5:c5:50:82:8d:a3:09:be:fb:c9:39:92:aa:7b:85:
        e2:73:50:a6:78:c0:66:55:ac:d8:a5:53:7d:55:1f:b1:a8:1c:
        0a:62:58:6b:e0:eb:b8:2f:f4:92:58:96:37:5d:f4:ed:22:72:
        60:b0:76:5e:03:8b:f2:fe:99:b5:a0:84:64:72:8a:4c:73:f3:
        22:18:70:71:45:cf:0b:a9
-----BEGIN CERTIFICATE-----
MIIDlTCCAX0CAQIwDQYJKoZIhvcNAQELBQAwEDEOMAwGA1UEAwwFQUdVTEUwHhcN
MjYwNDA4MTg1MDI5WhcNMjcwNDA4MTg1MDI5WjARMQ8wDQYDVQQDDAZtYXJpbzEw
ggEiMA0GCSqGSIb3DQEBAQUAA4IBDwAwggEKAoIBAQDB/DKjxrQXVbNVt3F3o+OA
dkrayzx3Nvq7sQvbimqQWw4BBpWPyokjaAirFpYWBF/57ljl36ah5g0ZYF3a6lg4
YZS46dm06LUB6/VJH8q7MrC5slHgqSCelZCrNOhy8nF8hTxGFTsK8ATxn5si7ySY
rWyqhY4xIi/Csp5jrqj79YZqwgwg30TKvz1ZgNKso/3W6g8lwmBUB92h5NbGxqMy
kYOnVCu5BSKfv/NvU1lxZpisOH0iRCPAPbBN0t0HTEkW/mrmZ/wYvp+u94zonK27
qbrnowCOboIyyeTP72frFHhsnQ7h8l/YNVx8rw4iuYHRmuN0SZThryBCEQOYCRYH
AgMBAAEwDQYJKoZIhvcNAQELBQADggIBACzwPANyChYM1CRIcVAOoO0ymctwVPtT
WLffBABRJct2EjVdrk6gSVsE50gS0W3UVzmTlScWJ87pJ884JWJWHdASDcSca9cT
gJ9ptzK118XIAyVASHTqbu/wIzcbxJl21OTZm7IpWqM1dvezb9zGPxyjtIOfpE9O
fg4YHiSt0zLqrYnvbcWY99tQ2S6T6y9TbWrz8U0q6lb774ViFxeGEVsoFv1g7ke7
Im6JHJ4rz8xaeFIWm/ObYfB6bfoC6VNMRcR4C1bvVrkWJJbGbOIUKgDcs+ulvfO+
/RhJ4jDAwCGNdx7RJbKpEn6a3BvTP2vnmDo+6KBj023cTkLXX+cwwkHHdmPIWul+
D2R+6useZI2pwcdsNzk1sh0g3cx2g5Ms803wi7kRC94vFm7wfvXFI+etALcvDxnv
EOIRsjjcx0wvgzOmftIqT+G0yi0o2HwGvF+QYMP1J1odIGHThuACFcwNHL3lyM5+
oDmnc1jbCAQ5dD5zFeB7YY7lXeXTrd6auuY4TPjjhouB3NqNwh5clbnOKIDNWMGs
5Dql9W1skwI/px7PPGGaQy9zN28687H1SWTKstXFUIKNowm++8k5kqp7heJzUKZ4
wGZVrNilU31VH7GoHApiWGvg67gv9JJYljdd9O0icmCwdl4Di/L+mbWghGRyikxz
8yIYcHFFzwup
-----END CERTIFICATE-----
