Certificate:
    Data:
        Version: 1 (0x0)
        Serial Number: 3 (0x3)
        Signature Algorithm: sha256WithRSAEncryption
        Issuer: CN=AGULE
        Validity
            Not Before: Apr 25 12:10:20 2026 GMT
            Not After : Apr 25 12:10:20 2027 GMT
        Subject: CN=mario3
        Subject Public Key Info:
            Public Key Algorithm: rsaEncryption
                Public-Key: (2048 bit)
                Modulus:
                    00:c1:0c:ba:f0:0e:c0:c0:fe:46:77:40:b1:9d:e3:
                    69:55:06:b1:22:cf:3d:08:cb:06:7e:57:09:ba:e1:
                    33:bd:d5:f8:8f:13:5a:71:98:ba:f0:04:ac:cd:42:
                    80:f6:c2:4d:8e:2c:f2:d5:27:c9:5b:9b:08:ee:bb:
                    eb:76:85:6e:86:5f:d0:a1:53:95:e6:75:77:a6:37:
                    0c:67:e4:0a:d6:4f:a6:b5:32:68:c0:3f:f9:de:c1:
                    14:12:b0:a8:6d:cf:74:e0:99:64:fd:46:6d:df:7b:
                    da:8d:6d:43:aa:28:1c:bd:d9:dc:2b:82:b7:3a:d6:
                    6d:d1:0c:18:f2:0e:ec:38:b8:5d:2f:73:e7:45:56:
                    20:ab:78:82:22:2b:7d:6e:4a:ba:74:50:05:8b:c5:
                    cc:1c:42:3b:1b:f8:1c:1e:56:98:fc:fa:14:d3:f8:
                    b5:e9:a6:95:81:0a:cc:69:15:a5:71:54:8c:8a:a1:
                    90:0d:30:12:41:c7:21:60:17:76:ef:c2:a9:9d:25:
                    ae:dd:56:24:42:0b:12:d1:b5:57:9a:b8:b0:94:5f:
                    8e:49:08:d5:5b:5b:e6:18:a8:10:01:bc:ff:8b:c2:
                    22:a5:50:d7:13:ef:27:78:d0:b8:39:50:52:47:f6:
                    ba:eb:ab:05:fd:db:09:63:d8:fc:f6:78:b5:38:0c:
                    57:bf
                Exponent: 65537 (0x10001)
    Signature Algorithm: sha256WithRSAEncryption
    Signature Value:
        40:51:65:28:ff:22:6c:12:34:7b:fd:69:c8:34:01:bc:8f:33:
        64:1c:7a:dc:e5:a4:2c:3c:ff:37:82:4a:d4:a9:aa:b6:ce:f8:
        84:f0:32:e3:de:b2:ca:6c:f0:d2:68:e1:e9:79:21:15:71:ac:
        e1:ac:3e:89:e1:bc:ee:f7:35:8a:96:36:f7:ac:26:62:bd:d6:
        cd:59:40:4a:37:bc:c2:32:d0:09:12:24:84:eb:4a:cf:14:61:
        a0:38:b6:0f:3d:15:b0:fd:44:4b:9f:b9:37:db:e4:f0:14:a3:
        bc:82:68:b1:64:50:06:94:94:18:f6:47:ac:31:70:3d:56:67:
        eb:b7:53:84:b7:76:e3:80:0c:41:0d:ed:5e:75:3a:9b:4d:6e:
        1f:99:25:c2:b2:b3:8b:46:ad:84:54:ac:17:be:80:22:1e:d0:
        88:91:1f:9a:29:d1:52:7b:31:0b:18:9a:2f:a3:d4:2a:82:7f:
        2d:43:ad:0d:35:c2:3e:f7:24:80:7c:4a:ba:d5:58:a0:41:ab:
        ac:e5:37:1b:d2:1f:ca:53:bb:86:7d:c8:83:86:c7:b8:ac:e0:
        b3:4a:af:80:61:60:07:af:87:e0:b9:58:9b:ef:0a:f7:39:a0:
        9c:d5:e5:f1:2b:ed:b0:4f:d0:04:53:af:b4:7a:e1:6b:42:be:
        15:83:23:fd:97:ad:37:c0:db:60:b7:b5:6a:14:99:12:a2:2b:
        62:ac:4a:05:20:79:f9:57:d2:23:31:2b:01:47:a5:16:c6:14:
        e2:34:4b:c7:ef:14:b9:3a:5b:5b:1f:99:e5:76:9b:31:7b:23:
        13:ae:11:07:ae:f3:e7:d9:7d:46:c0:5c:0d:c5:c6:b8:23:83:
        55:34:14:be:57:19:4d:7c:da:30:f2:ce:07:b7:62:f2:7c:ce:
        63:25:3d:ca:00:ba:3a:0e:c9:19:7a:b4:57:65:e4:6c:81:1b:
        8b:9e:7f:73:46:f7:47:1b:6e:5a:54:ff:34:e4:fb:4d:05:c8:
        56:ac:3c:ea:56:d9:c7:17:7d:4a:ca:06:79:28:2a:0a:84:2e:
        10:cc:24:7c:e7:f6:5d:8b:44:fa:5c:3e:1d:28:66:09:ea:f4:
        4f:f2:3f:46:9f:20:48:04:23:35:3e:4f:26:f8:b5:fc:a5:d5:
        c3:29:5e:5d:6c:b9:28:d8:13:e1:2c:89:d3:14:e5:0a:d3:90:
        e7:e2:bb:b9:f9:89:f0:59:63:9d:3d:e5:66:4a:18:41:5d:db:
        5c:5d:f0:3c:27:ef:a8:7c:2c:c8:15:49:a7:bf:1a:e3:0b:fa:
        7a:52:5f:d0:0a:54:f9:44:3e:77:ca:bd:f3:56:22:c9:2a:12:
        3d:c0:b8:be:57:28:16:bc
-----BEGIN CERTIFICATE-----
MIIDlTCCAX0CAQMwDQYJKoZIhvcNAQELBQAwEDEOMAwGA1UEAwwFQUdVTEUwHhcN
MjYwNDI1MTIxMDIwWhcNMjcwNDI1MTIxMDIwWjARMQ8wDQYDVQQDDAZtYXJpbzMw
ggEiMA0GCSqGSIb3DQEBAQUAA4IBDwAwggEKAoIBAQDBDLrwDsDA/kZ3QLGd42lV
BrEizz0IywZ+Vwm64TO91fiPE1pxmLrwBKzNQoD2wk2OLPLVJ8lbmwjuu+t2hW6G
X9ChU5XmdXemNwxn5ArWT6a1MmjAP/newRQSsKhtz3TgmWT9Rm3fe9qNbUOqKBy9
2dwrgrc61m3RDBjyDuw4uF0vc+dFViCreIIiK31uSrp0UAWLxcwcQjsb+BweVpj8
+hTT+LXpppWBCsxpFaVxVIyKoZANMBJBxyFgF3bvwqmdJa7dViRCCxLRtVeauLCU
X45JCNVbW+YYqBABvP+LwiKlUNcT7yd40Lg5UFJH9rrrqwX92wlj2Pz2eLU4DFe/
AgMBAAEwDQYJKoZIhvcNAQELBQADggIBAEBRZSj/ImwSNHv9acg0AbyPM2Qcetzl
pCw8/zeCStSpqrbO+ITwMuPessps8NJo4el5IRVxrOGsPonhvO73NYqWNvesJmK9
1s1ZQEo3vMIy0AkSJITrSs8UYaA4tg89FbD9REufuTfb5PAUo7yCaLFkUAaUlBj2
R6wxcD1WZ+u3U4S3duOADEEN7V51OptNbh+ZJcKys4tGrYRUrBe+gCIe0IiRH5op
0VJ7MQsYmi+j1CqCfy1DrQ01wj73JIB8SrrVWKBBq6zlNxvSH8pTu4Z9yIOGx7is
4LNKr4BhYAevh+C5WJvvCvc5oJzV5fEr7bBP0ARTr7R64WtCvhWDI/2XrTfA22C3
tWoUmRKiK2KsSgUgeflX0iMxKwFHpRbGFOI0S8fvFLk6W1sfmeV2mzF7IxOuEQeu
8+fZfUbAXA3Fxrgjg1U0FL5XGU182jDyzge3YvJ8zmMlPcoAujoOyRl6tFdl5GyB
G4uef3NG90cbblpU/zTk+00FyFasPOpW2ccXfUrKBnkoKgqELhDMJHzn9l2LRPpc
Ph0oZgnq9E/yP0afIEgEIzU+Tyb4tfyl1cMpXl1suSjYE+EsidMU5QrTkOfiu7n5
ifBZY5095WZKGEFd21xd8Dwn76h8LMgVSae/GuML+npSX9AKVPlEPnfKvfNWIskq
Ej3AuL5XKBa8
-----END CERTIFICATE-----
