Certificate:
    Data:
        Version: 1 (0x0)
        Serial Number: 3 (0x3)
        Signature Algorithm: sha256WithRSAEncryption
        Issuer: CN=ca
        Validity
            Not Before: Dec  7 10:17:14 2024 GMT
            Not After : Dec  7 10:17:14 2025 GMT
        Subject: CN=mario
        Subject Public Key Info:
            Public Key Algorithm: rsaEncryption
                Public-Key: (2048 bit)
                Modulus:
                    00:a9:d6:67:2a:86:54:ad:6d:63:20:5a:30:55:d3:
                    71:78:37:0a:d3:9e:40:1b:ff:90:9b:d1:6c:77:b1:
                    05:85:9d:92:58:05:1f:1a:db:b7:26:8f:c4:a5:70:
                    3e:8c:7d:2f:0d:30:db:e2:13:f6:9c:8f:b9:fb:ad:
                    9a:8a:41:77:f5:5f:35:d0:d4:6a:99:b2:00:4f:ac:
                    c1:10:e8:03:71:de:d8:86:c6:45:f7:2a:9d:92:cd:
                    82:4c:e6:4a:7d:77:98:c0:d7:0e:c7:c0:5f:e4:7b:
                    1b:cb:38:74:b2:40:15:84:de:ca:3b:fa:5c:4c:d4:
                    44:e6:52:39:67:72:f3:08:2f:cc:23:84:48:92:6d:
                    ae:63:5a:3d:03:0e:34:44:c4:41:a1:10:a8:94:62:
                    e4:dc:af:fd:b3:c3:c6:0f:be:9c:fa:33:c2:c5:8b:
                    ef:11:66:b9:09:cb:03:c7:5d:40:90:f2:a1:f5:49:
                    cf:87:20:13:61:cc:1c:0f:7d:cb:ac:9a:79:16:b1:
                    b6:4c:02:36:4e:51:ad:d0:49:f0:b1:f1:3a:5b:e9:
                    57:59:2c:dd:f9:b1:b5:d6:73:e6:09:97:b2:6b:de:
                    25:a6:35:6f:60:8a:50:80:b4:e3:88:12:ef:66:4a:
                    96:09:6b:e2:45:58:8a:df:ce:87:6f:8c:91:09:88:
                    db:bd
                Exponent: 65537 (0x10001)
    Signature Algorithm: sha256WithRSAEncryption
    Signature Value:
        b3:cf:52:56:03:f1:f5:e9:81:d9:03:3c:16:3b:a3:d4:17:0b:
        a2:f3:9c:01:d6:9e:10:3e:23:b0:37:a2:8a:96:09:83:ce:93:
        c5:90:10:3c:24:15:43:e4:f7:67:ce:88:1e:a9:ce:58:0c:c1:
        aa:30:07:81:5b:1c:4e:44:89:38:af:c0:fe:0e:b5:ea:d6:55:
        c6:07:f2:28:3f:63:88:5e:10:86:dd:0d:88:32:ec:33:8b:81:
        62:f3:93:76:25:43:e2:35:a7:c3:95:cb:f1:50:ba:5f:fc:69:
        fe:1f:38:9d:e1:24:7a:02:ab:20:1b:ad:97:70:42:74:2d:9e:
        ba:0d:e5:5c:d0:51:23:63:04:9e:1f:d3:1a:a0:db:67:ee:08:
        03:ae:f8:69:51:bd:c6:72:3f:7e:83:60:9f:13:e0:22:b4:80:
        65:76:ad:e3:fc:1c:9c:ac:14:79:f1:89:cf:7b:e7:7d:86:24:
        59:7e:6f:f9:4b:e9:0f:5a:93:2c:11:e1:8b:46:cc:d0:30:92:
        07:88:8b:05:88:d5:04:f0:39:d7:00:4e:64:c4:38:5a:ac:dc:
        f0:70:73:08:75:00:f8:e3:b7:27:a0:ac:b1:57:46:ee:37:0c:
        27:43:71:a4:14:6f:d9:b3:25:4b:54:2f:63:29:d9:8e:99:c4:
        42:7b:01:fb
-----BEGIN CERTIFICATE-----
MIICkTCCAXkCAQMwDQYJKoZIhvcNAQELBQAwDTELMAkGA1UEAwwCY2EwHhcNMjQx
MjA3MTAxNzE0WhcNMjUxMjA3MTAxNzE0WjAQMQ4wDAYDVQQDDAVtYXJpbzCCASIw
DQYJKoZIhvcNAQEBBQADggEPADCCAQoCggEBAKnWZyqGVK1tYyBaMFXTcXg3CtOe
QBv/kJvRbHexBYWdklgFHxrbtyaPxKVwPox9Lw0w2+IT9pyPufutmopBd/VfNdDU
apmyAE+swRDoA3He2IbGRfcqnZLNgkzmSn13mMDXDsfAX+R7G8s4dLJAFYTeyjv6
XEzUROZSOWdy8wgvzCOESJJtrmNaPQMONETEQaEQqJRi5Nyv/bPDxg++nPozwsWL
7xFmuQnLA8ddQJDyofVJz4cgE2HMHA99y6yaeRaxtkwCNk5RrdBJ8LHxOlvpV1ks
3fmxtdZz5gmXsmveJaY1b2CKUIC044gS72ZKlglr4kVYit/Oh2+MkQmI270CAwEA
ATANBgkqhkiG9w0BAQsFAAOCAQEAs89SVgPx9emB2QM8Fjuj1BcLovOcAdaeED4j
sDeiipYJg86TxZAQPCQVQ+T3Z86IHqnOWAzBqjAHgVscTkSJOK/A/g616tZVxgfy
KD9jiF4Qht0NiDLsM4uBYvOTdiVD4jWnw5XL8VC6X/xp/h84neEkegKrIButl3BC
dC2eug3lXNBRI2MEnh/TGqDbZ+4IA674aVG9xnI/foNgnxPgIrSAZXat4/wcnKwU
efGJz3vnfYYkWX5v+UvpD1qTLBHhi0bM0DCSB4iLBYjVBPA51wBOZMQ4Wqzc8HBz
CHUA+OO3J6CssVdG7jcMJ0NxpBRv2bMlS1QvYynZjpnEQnsB+w==
-----END CERTIFICATE-----
