Certificate:
    Data:
        Version: 1 (0x0)
        Serial Number: 3 (0x3)
        Signature Algorithm: sha256WithRSAEncryption
        Issuer: CN=AGULE
        Validity
            Not Before: Apr 18 08:30:37 2026 GMT
            Not After : Apr 18 08:30:37 2027 GMT
        Subject: CN=mario2
        Subject Public Key Info:
            Public Key Algorithm: rsaEncryption
                Public-Key: (2048 bit)
                Modulus:
                    00:99:c6:7b:f5:81:73:ac:7e:d1:e5:ca:1c:ab:95:
                    d4:3f:11:33:ea:86:22:3f:b0:77:15:68:d6:79:2c:
                    3c:26:ea:59:98:ad:51:4d:ce:e5:d5:7f:57:bd:ca:
                    8e:9c:d4:6c:0a:a2:8f:1b:21:8a:11:a6:cc:61:e6:
                    cd:dc:e2:eb:1b:b1:84:de:a8:7c:af:3f:ea:eb:a0:
                    46:dc:c6:f7:9c:4e:0f:a8:14:9e:37:3b:19:bc:9d:
                    17:c1:b5:f5:c1:4b:e3:d0:98:de:2d:d0:02:3d:8b:
                    0c:1e:d4:e2:57:35:e4:10:56:ae:cf:8b:21:a1:31:
                    11:17:f5:fb:a0:d2:41:a5:55:82:2c:77:9f:fb:3e:
                    74:06:c3:e8:92:18:88:f4:f4:e3:b1:69:27:a5:2a:
                    83:34:77:0e:75:8e:bc:5b:2f:5f:08:b5:f2:8e:a5:
                    d9:fc:d5:d1:70:d6:0d:99:10:80:92:0b:3f:68:d7:
                    d1:1c:47:ff:7b:11:de:77:2a:01:dd:38:6f:fd:74:
                    78:79:92:49:f8:f6:f3:1f:53:e2:7d:b8:9c:b3:a6:
                    9b:16:6b:1a:ac:1b:ba:18:06:ad:45:77:8c:d7:eb:
                    f0:4c:42:a4:88:90:10:2e:35:c2:ce:f8:75:74:d1:
                    d1:74:a7:15:ec:58:dc:f5:39:d3:bc:34:e7:01:3f:
                    b4:6b
                Exponent: 65537 (0x10001)
    Signature Algorithm: sha256WithRSAEncryption
    Signature Value:
        8d:ed:10:61:ee:54:1d:48:0e:a4:f2:95:9a:13:5e:99:b6:84:
        fd:9d:73:de:14:e3:ed:b8:6c:e0:50:b8:68:bd:2f:a1:dc:31:
        a6:12:df:37:b2:90:ae:71:88:d8:1f:f5:e5:88:9c:ce:83:bb:
        6c:ed:65:78:7b:ea:cf:85:4b:d3:04:cc:6e:23:03:21:d5:ab:
        93:f7:39:e4:9a:bc:87:de:a7:59:c3:d5:96:e5:2a:87:6d:bc:
        04:8a:aa:84:95:ae:d2:9d:cc:6f:7a:eb:34:47:3a:b7:5b:fe:
        0b:3a:c9:b9:df:84:e2:1f:ba:e1:34:0f:e9:4a:18:56:31:5f:
        81:c4:b2:e2:99:0b:fe:c0:09:99:50:2e:51:36:44:16:75:d8:
        d4:55:ad:20:a9:e3:4a:a9:af:75:95:3e:30:10:16:eb:2a:f0:
        73:1a:3a:41:70:98:dd:0e:43:24:ee:35:f3:e3:c8:f5:7e:af:
        b1:cc:ce:4b:b1:69:8a:ff:f4:0c:04:5c:fc:4e:7d:94:38:33:
        84:a1:c6:ea:a9:53:d3:bf:bb:2d:87:2e:82:67:0e:18:4e:c2:
        34:9c:90:15:4d:9f:49:8a:5a:1e:28:c2:d8:02:2f:10:85:0b:
        9a:d7:14:93:88:18:e1:21:eb:e5:c1:d3:d3:52:02:a6:0c:d9:
        54:e5:a6:5c:8d:ca:39:6c:ed:ce:de:3f:f9:0a:26:44:66:be:
        1d:57:1e:e1:d0:77:fe:18:f4:89:c1:e7:00:88:24:be:d5:de:
        5e:9f:4d:73:b7:60:cd:c3:50:99:fb:44:2f:16:0e:98:c3:29:
        a1:de:6c:71:6d:32:79:b4:3c:47:42:30:4a:df:ef:20:64:b4:
        da:a8:0b:04:a0:7c:02:9f:f2:25:19:ea:53:c8:3a:5a:e3:59:
        09:2e:d9:ee:ce:07:c5:ad:b4:e4:d2:b5:0b:14:41:20:cf:de:
        67:aa:bc:8b:be:23:c9:e8:d5:4a:1a:8a:0e:f3:e1:2f:85:09:
        8b:02:0e:b3:22:03:e7:1e:41:69:fa:36:58:7a:0c:ee:dc:bd:
        f6:12:85:bc:85:2f:af:4d:12:57:af:ca:51:77:17:90:59:7c:
        10:8d:01:29:a4:1b:a2:a1:bb:83:57:f4:4b:b0:27:7c:61:d1:
        18:a2:2a:b6:ff:15:86:01:19:25:5b:b0:7c:3e:31:f2:8c:11:
        37:21:87:cf:7a:27:e7:17:53:c3:35:3c:3c:ad:be:16:8d:06:
        62:ca:15:7e:98:ed:93:0c:d7:81:e7:b4:e8:71:ed:86:c1:e0:
        b1:5c:6c:41:1b:8b:73:0f:61:bd:c7:21:e6:84:65:f5:39:f7:
        fd:23:2a:27:b9:e9:e2:f0
-----BEGIN CERTIFICATE-----
MIIDlTCCAX0CAQMwDQYJKoZIhvcNAQELBQAwEDEOMAwGA1UEAwwFQUdVTEUwHhcN
MjYwNDE4MDgzMDM3WhcNMjcwNDE4MDgzMDM3WjARMQ8wDQYDVQQDDAZtYXJpbzIw
ggEiMA0GCSqGSIb3DQEBAQUAA4IBDwAwggEKAoIBAQCZxnv1gXOsftHlyhyrldQ/
ETPqhiI/sHcVaNZ5LDwm6lmYrVFNzuXVf1e9yo6c1GwKoo8bIYoRpsxh5s3c4usb
sYTeqHyvP+rroEbcxvecTg+oFJ43Oxm8nRfBtfXBS+PQmN4t0AI9iwwe1OJXNeQQ
Vq7PiyGhMREX9fug0kGlVYIsd5/7PnQGw+iSGIj09OOxaSelKoM0dw51jrxbL18I
tfKOpdn81dFw1g2ZEICSCz9o19EcR/97Ed53KgHdOG/9dHh5kkn49vMfU+J9uJyz
ppsWaxqsG7oYBq1Fd4zX6/BMQqSIkBAuNcLO+HV00dF0pxXsWNz1OdO8NOcBP7Rr
AgMBAAEwDQYJKoZIhvcNAQELBQADggIBAI3tEGHuVB1IDqTylZoTXpm2hP2dc94U
4+24bOBQuGi9L6HcMaYS3zeykK5xiNgf9eWInM6Du2ztZXh76s+FS9MEzG4jAyHV
q5P3OeSavIfep1nD1ZblKodtvASKqoSVrtKdzG966zRHOrdb/gs6ybnfhOIfuuE0
D+lKGFYxX4HEsuKZC/7ACZlQLlE2RBZ12NRVrSCp40qpr3WVPjAQFusq8HMaOkFw
mN0OQyTuNfPjyPV+r7HMzkuxaYr/9AwEXPxOfZQ4M4ShxuqpU9O/uy2HLoJnDhhO
wjSckBVNn0mKWh4owtgCLxCFC5rXFJOIGOEh6+XB09NSAqYM2VTlplyNyjls7c7e
P/kKJkRmvh1XHuHQd/4Y9InB5wCIJL7V3l6fTXO3YM3DUJn7RC8WDpjDKaHebHFt
Mnm0PEdCMErf7yBktNqoCwSgfAKf8iUZ6lPIOlrjWQku2e7OB8WttOTStQsUQSDP
3meqvIu+I8no1Uoaig7z4S+FCYsCDrMiA+ceQWn6Nlh6DO7cvfYShbyFL69NElev
ylF3F5BZfBCNASmkG6Khu4NX9EuwJ3xh0RiiKrb/FYYBGSVbsHw+MfKMETchh896
J+cXU8M1PDytvhaNBmLKFX6Y7ZMM14HntOhx7YbB4LFcbEEbi3MPYb3HIeaEZfU5
9/0jKie56eLw
-----END CERTIFICATE-----
