Certificate:
    Data:
        Version: 1 (0x0)
        Serial Number: 3 (0x3)
        Signature Algorithm: sha256WithRSAEncryption
        Issuer: CN=AGULE
        Validity
            Not Before: Jun  5 11:47:28 2026 GMT
            Not After : Jun  5 11:47:28 2027 GMT
        Subject: CN=prueba1
        Subject Public Key Info:
            Public Key Algorithm: rsaEncryption
                Public-Key: (2048 bit)
                Modulus:
                    00:d1:c9:6e:59:39:be:66:3d:b5:56:81:f0:37:98:
                    5c:87:3c:bd:7d:49:e9:e8:d3:f6:91:27:cc:8e:44:
                    eb:79:73:5c:b6:7b:08:5f:6e:f9:83:01:37:5d:2d:
                    5e:0d:5f:a4:f5:d3:3a:14:81:bd:17:ef:de:0c:56:
                    bb:c8:02:15:b7:f1:4e:87:d2:2f:92:a7:39:55:0c:
                    59:dd:b7:9c:b9:0f:64:d0:15:84:15:57:55:c1:34:
                    44:a5:f0:cb:89:01:16:24:2e:62:85:3b:cd:46:9f:
                    22:ee:1c:e7:c4:b5:70:0e:86:1c:fc:27:d0:ac:c1:
                    ee:9a:92:3c:da:47:74:1e:7d:0c:75:50:c8:a3:e6:
                    e2:91:c9:9d:89:53:da:3a:03:b4:3d:61:13:a2:2a:
                    60:5d:48:35:6e:20:68:e3:ac:89:53:0c:5d:0a:16:
                    95:e6:20:4e:81:4d:1d:d6:1a:58:2b:4d:f0:d2:59:
                    64:d9:86:6b:d0:e5:05:6d:cd:70:87:07:a7:11:8c:
                    4a:1f:5e:25:05:96:bd:29:89:e3:cb:59:ef:4f:41:
                    0e:04:31:09:d1:74:6f:06:59:f2:c2:2d:eb:97:f5:
                    25:c1:14:db:58:03:74:6c:83:8f:db:00:e0:de:19:
                    d9:7d:f8:35:01:3e:af:ce:8a:48:1d:be:6f:f4:bf:
                    5e:03
                Exponent: 65537 (0x10001)
    Signature Algorithm: sha256WithRSAEncryption
    Signature Value:
        67:ce:fd:d7:a3:fa:d0:1d:fc:be:53:7f:2c:9f:d2:05:1e:1e:
        29:d5:f7:4d:75:3f:4d:8d:ef:2b:ea:33:fd:29:78:a4:22:18:
        97:ca:77:c0:18:fe:20:3c:32:1c:18:ba:e4:fe:f3:61:80:d6:
        15:99:0e:18:e1:c1:62:b4:1a:0a:82:1b:0c:b5:c4:f2:9f:c6:
        2d:16:68:f7:ec:f2:bc:f1:de:df:57:d4:d7:20:5f:6c:a4:60:
        bf:b5:82:ec:e2:7d:ea:be:72:91:ed:ac:6d:8a:73:13:6f:cb:
        95:56:0d:3b:07:ff:68:3c:9e:8e:09:f2:53:14:95:29:b5:a2:
        6a:14:94:72:70:5b:35:9f:2d:2a:ed:36:0c:77:68:2a:6d:81:
        8a:79:18:15:d5:92:4b:fb:be:b5:a6:5d:fe:da:09:89:3f:fa:
        1e:ba:83:2c:11:7a:43:e8:27:f1:ce:72:e8:fb:96:33:a5:38:
        16:fe:b5:f1:c5:11:18:56:c9:30:4a:04:18:ac:da:9d:e9:2e:
        4c:35:a0:d5:0e:b3:fa:38:a7:cb:7a:b4:2e:61:67:85:55:1b:
        f7:1b:22:e8:44:ea:5d:4f:fb:3f:35:ea:2c:6d:33:7b:97:d7:
        1f:98:60:0e:9f:d8:f5:7c:39:d2:ce:3c:1a:07:5e:14:8a:de:
        ac:3a:d5:77:4a:01:73:45:37:b2:0f:ce:64:73:65:82:42:c6:
        33:48:c2:9c:8a:14:48:bb:34:ba:ec:f0:bd:2c:69:37:36:bb:
        16:f1:b8:29:52:ba:12:52:e3:f4:4d:2b:1d:f2:da:0b:eb:37:
        4d:e4:a3:f9:04:ca:cd:91:7a:cd:fb:37:17:1a:0b:10:9a:ce:
        74:f3:68:01:57:6d:52:d9:61:a4:a3:74:bd:8f:3b:e2:f5:f2:
        71:6d:92:ed:4b:4d:81:02:e1:a9:2b:ac:c4:de:4d:0a:61:dd:
        0e:38:a6:be:14:e7:75:bf:88:68:d2:e0:7f:bc:73:4e:56:f9:
        2d:a0:a2:51:fa:cd:dd:3f:c0:f4:e5:f9:52:68:77:87:bd:6c:
        10:ff:4c:98:41:5f:9f:c3:22:55:96:19:f7:64:08:48:b7:29:
        24:9d:e9:9b:03:71:4c:6f:75:01:1d:b7:63:53:db:45:b5:54:
        41:50:ca:3c:7c:40:11:73:ae:30:e0:cc:7b:46:92:76:98:40:
        ca:49:96:01:99:e8:4d:4b:df:0a:73:41:c6:50:ec:42:6d:45:
        1f:55:90:2f:cf:65:c2:98:d0:44:31:de:b2:e2:31:35:93:3e:
        c7:bd:00:b0:c0:bb:25:1d:57:d1:e4:7f:f6:fd:ab:2e:57:ac:
        33:1c:5b:76:6e:89:a4:88
-----BEGIN CERTIFICATE-----
MIIDljCCAX4CAQMwDQYJKoZIhvcNAQELBQAwEDEOMAwGA1UEAwwFQUdVTEUwHhcN
MjYwNjA1MTE0NzI4WhcNMjcwNjA1MTE0NzI4WjASMRAwDgYDVQQDDAdwcnVlYmEx
MIIBIjANBgkqhkiG9w0BAQEFAAOCAQ8AMIIBCgKCAQEA0cluWTm+Zj21VoHwN5hc
hzy9fUnp6NP2kSfMjkTreXNctnsIX275gwE3XS1eDV+k9dM6FIG9F+/eDFa7yAIV
t/FOh9Ivkqc5VQxZ3becuQ9k0BWEFVdVwTREpfDLiQEWJC5ihTvNRp8i7hznxLVw
DoYc/CfQrMHumpI82kd0Hn0MdVDIo+bikcmdiVPaOgO0PWEToipgXUg1biBo46yJ
UwxdChaV5iBOgU0d1hpYK03w0llk2YZr0OUFbc1whwenEYxKH14lBZa9KYnjy1nv
T0EOBDEJ0XRvBlnywi3rl/UlwRTbWAN0bIOP2wDg3hnZffg1AT6vzopIHb5v9L9e
AwIDAQABMA0GCSqGSIb3DQEBCwUAA4ICAQBnzv3Xo/rQHfy+U38sn9IFHh4p1fdN
dT9Nje8r6jP9KXikIhiXynfAGP4gPDIcGLrk/vNhgNYVmQ4Y4cFitBoKghsMtcTy
n8YtFmj37PK88d7fV9TXIF9spGC/tYLs4n3qvnKR7axtinMTb8uVVg07B/9oPJ6O
CfJTFJUptaJqFJRycFs1ny0q7TYMd2gqbYGKeRgV1ZJL+761pl3+2gmJP/oeuoMs
EXpD6CfxznLo+5YzpTgW/rXxxREYVskwSgQYrNqd6S5MNaDVDrP6OKfLerQuYWeF
VRv3GyLoROpdT/s/NeosbTN7l9cfmGAOn9j1fDnSzjwaB14Uit6sOtV3SgFzRTey
D85kc2WCQsYzSMKcihRIuzS67PC9LGk3NrsW8bgpUroSUuP0TSsd8toL6zdN5KP5
BMrNkXrN+zcXGgsQms5082gBV21S2WGko3S9jzvi9fJxbZLtS02BAuGpK6zE3k0K
Yd0OOKa+FOd1v4ho0uB/vHNOVvktoKJR+s3dP8D05flSaHeHvWwQ/0yYQV+fwyJV
lhn3ZAhItykknembA3FMb3UBHbdjU9tFtVRBUMo8fEARc64w4Mx7RpJ2mEDKSZYB
mehNS98Kc0HGUOxCbUUfVZAvz2XCmNBEMd6y4jE1kz7HvQCwwLslHVfR5H/2/asu
V6wzHFt2bomkiA==
-----END CERTIFICATE-----
