Certificate:
    Data:
        Version: 1 (0x0)
        Serial Number: 4 (0x4)
        Signature Algorithm: sha256WithRSAEncryption
        Issuer: CN=AGULE
        Validity
            Not Before: Apr 18 09:24:04 2026 GMT
            Not After : Apr 18 09:24:04 2027 GMT
        Subject: CN=mario2
        Subject Public Key Info:
            Public Key Algorithm: rsaEncryption
                Public-Key: (2048 bit)
                Modulus:
                    00:d3:7d:af:54:3e:97:0d:48:0f:2b:9c:8c:1e:7c:
                    f2:31:43:3d:3b:6d:ed:eb:e6:9e:58:98:48:62:4d:
                    03:84:49:58:9c:60:e2:58:13:e3:8b:0a:d5:64:ec:
                    7e:0c:c2:58:a0:c6:83:00:57:3e:16:2d:92:35:cd:
                    46:80:79:e0:f6:84:4c:a5:d2:47:b1:69:54:dd:5f:
                    59:19:cb:90:0f:c0:ff:4d:18:ea:11:ca:f7:e5:44:
                    56:fc:95:0d:87:e0:78:0a:c3:0b:04:4f:c9:85:cb:
                    e3:10:b9:ee:07:9f:58:64:15:49:39:bc:ed:08:76:
                    58:52:f5:21:02:97:e1:b4:83:6d:2d:b4:7a:85:38:
                    a6:e1:90:5a:0e:dc:ae:64:7b:98:52:9d:90:51:e7:
                    6f:3e:34:70:ae:6a:66:0c:57:7c:68:14:15:67:bb:
                    a5:a3:7c:53:3a:be:c7:91:1d:09:34:ac:a6:1f:25:
                    2d:f6:77:d5:14:a0:cd:61:f5:53:a1:80:93:d0:67:
                    82:7b:72:a2:fe:72:59:b6:b0:02:88:52:d1:0e:81:
                    7f:58:38:fa:fd:a3:2d:83:0f:e9:9b:5e:55:63:e2:
                    f9:22:6d:4e:8c:59:26:9a:68:ba:46:68:d0:da:85:
                    dd:ac:b7:fe:64:6f:aa:70:f3:f8:9c:69:a6:79:fb:
                    69:41
                Exponent: 65537 (0x10001)
    Signature Algorithm: sha256WithRSAEncryption
    Signature Value:
        15:14:d2:56:d9:e0:a0:5a:fc:74:0e:7e:ca:68:c0:47:ad:d0:
        3e:73:63:12:4a:a2:5a:8a:35:e3:53:40:33:77:5d:9f:43:4d:
        38:31:d4:4a:64:41:ee:f6:b2:02:d3:77:9a:f7:4d:cb:f5:35:
        8a:7e:1c:36:77:15:ca:a3:74:0c:59:39:f4:92:8f:7a:83:5e:
        f0:b9:18:da:eb:31:ba:be:0d:6d:40:df:19:dc:9d:2d:89:b0:
        01:f3:13:ee:c4:3d:95:45:c1:0f:ef:79:cf:6c:1b:6f:c7:66:
        d7:3f:ce:5f:d1:27:ba:3c:40:e4:3f:c0:46:41:c1:f5:c8:32:
        e2:48:1a:b6:4d:98:75:67:14:0f:3a:52:91:b7:d5:f3:db:5f:
        1f:08:43:42:ab:23:07:28:1b:5c:3d:90:8c:92:90:b1:3e:52:
        a8:c7:13:f1:95:a5:04:9d:87:d8:86:0f:a1:75:9c:73:24:3f:
        9e:4f:2b:09:c8:6a:e4:9b:13:2a:b6:24:9c:53:6c:a0:7a:09:
        1f:39:85:c4:46:dc:fd:7d:78:bc:8d:de:b9:27:62:c7:70:64:
        7c:9c:50:7e:98:e9:e9:f6:cb:b9:c9:ac:33:0d:79:50:96:b6:
        0a:f5:e7:fa:4d:36:3e:ee:f6:57:bc:30:3a:d0:04:5b:9d:33:
        5e:22:c6:a4:f4:d1:bc:27:58:8d:05:5a:41:31:60:d0:c3:99:
        ef:5a:3a:e3:55:b2:fc:3f:4d:e7:a9:63:33:6b:f2:6b:e4:71:
        f2:46:5d:3f:c8:5d:27:46:2d:0b:62:83:58:75:4c:92:dc:fd:
        d9:af:f5:ec:30:ac:b1:55:08:9f:09:57:0a:b8:b4:f6:0e:88:
        d9:44:d9:92:2e:62:87:6f:0f:85:6c:23:1b:13:06:47:f1:7f:
        61:68:e5:c3:82:cb:8a:f6:0e:08:70:d9:e3:20:83:50:92:d9:
        96:ff:1c:0a:81:28:56:95:e6:c6:11:e7:98:2f:c6:b6:90:ac:
        39:8b:fc:20:c0:98:0d:55:3e:b7:f1:b8:16:22:99:a8:2d:f4:
        dc:fa:f5:b8:93:ad:88:42:69:da:4b:b7:32:5a:4f:02:9b:5c:
        0f:28:2d:3f:aa:97:6b:0f:f8:0a:2b:1c:92:8c:47:48:c7:55:
        b5:d5:28:a9:ba:eb:14:a6:d4:08:01:4d:4e:41:ea:73:17:4b:
        75:a8:11:b7:81:2f:e9:4b:be:93:12:39:61:87:61:90:c9:ab:
        bd:bb:b0:cc:e9:c9:06:eb:58:7a:ca:62:5a:f6:c0:de:59:6f:
        17:ae:f0:7f:58:f3:b5:66:31:ef:f8:9f:64:9e:51:f6:a1:b3:
        62:bf:1d:c1:3e:44:34:6d
-----BEGIN CERTIFICATE-----
MIIDlTCCAX0CAQQwDQYJKoZIhvcNAQELBQAwEDEOMAwGA1UEAwwFQUdVTEUwHhcN
MjYwNDE4MDkyNDA0WhcNMjcwNDE4MDkyNDA0WjARMQ8wDQYDVQQDDAZtYXJpbzIw
ggEiMA0GCSqGSIb3DQEBAQUAA4IBDwAwggEKAoIBAQDTfa9UPpcNSA8rnIwefPIx
Qz07be3r5p5YmEhiTQOESVicYOJYE+OLCtVk7H4MwligxoMAVz4WLZI1zUaAeeD2
hEyl0kexaVTdX1kZy5APwP9NGOoRyvflRFb8lQ2H4HgKwwsET8mFy+MQue4Hn1hk
FUk5vO0IdlhS9SECl+G0g20ttHqFOKbhkFoO3K5ke5hSnZBR528+NHCuamYMV3xo
FBVnu6WjfFM6vseRHQk0rKYfJS32d9UUoM1h9VOhgJPQZ4J7cqL+clm2sAKIUtEO
gX9YOPr9oy2DD+mbXlVj4vkibU6MWSaaaLpGaNDahd2st/5kb6pw8/icaaZ5+2lB
AgMBAAEwDQYJKoZIhvcNAQELBQADggIBABUU0lbZ4KBa/HQOfspowEet0D5zYxJK
olqKNeNTQDN3XZ9DTTgx1EpkQe72sgLTd5r3Tcv1NYp+HDZ3FcqjdAxZOfSSj3qD
XvC5GNrrMbq+DW1A3xncnS2JsAHzE+7EPZVFwQ/vec9sG2/HZtc/zl/RJ7o8QOQ/
wEZBwfXIMuJIGrZNmHVnFA86UpG31fPbXx8IQ0KrIwcoG1w9kIySkLE+UqjHE/GV
pQSdh9iGD6F1nHMkP55PKwnIauSbEyq2JJxTbKB6CR85hcRG3P19eLyN3rknYsdw
ZHycUH6Y6en2y7nJrDMNeVCWtgr15/pNNj7u9le8MDrQBFudM14ixqT00bwnWI0F
WkExYNDDme9aOuNVsvw/TeepYzNr8mvkcfJGXT/IXSdGLQtig1h1TJLc/dmv9eww
rLFVCJ8JVwq4tPYOiNlE2ZIuYodvD4VsIxsTBkfxf2Fo5cOCy4r2Dghw2eMgg1CS
2Zb/HAqBKFaV5sYR55gvxraQrDmL/CDAmA1VPrfxuBYimagt9Nz69biTrYhCadpL
tzJaTwKbXA8oLT+ql2sP+AorHJKMR0jHVbXVKKm66xSm1AgBTU5B6nMXS3WoEbeB
L+lLvpMSOWGHYZDJq727sMzpyQbrWHrKYlr2wN5Zbxeu8H9Y87VmMe/4n2SeUfah
s2K/HcE+RDRt
-----END CERTIFICATE-----
