Certificate:
    Data:
        Version: 1 (0x0)
        Serial Number: 4 (0x4)
        Signature Algorithm: sha256WithRSAEncryption
        Issuer: CN=AGULE
        Validity
            Not Before: Apr 29 21:52:25 2026 GMT
            Not After : Apr 29 21:52:25 2027 GMT
        Subject: CN=mario2
        Subject Public Key Info:
            Public Key Algorithm: rsaEncryption
                Public-Key: (2048 bit)
                Modulus:
                    00:db:a0:a6:df:36:26:ff:1f:7c:b6:99:48:04:df:
                    d4:03:52:16:91:a1:b6:73:67:b4:b8:b2:07:fd:eb:
                    7d:30:25:c8:72:2f:34:c4:61:0c:6f:15:90:80:53:
                    58:30:77:ec:19:dc:a0:52:44:fd:a5:3f:5f:6b:ff:
                    27:9b:45:bc:2b:69:16:5a:f8:a9:a0:40:86:8a:54:
                    ed:e1:ca:2e:f6:f8:c1:1b:ba:c3:2d:49:16:d5:d3:
                    88:45:5f:24:89:b6:d9:b0:e5:ef:71:68:8c:fe:c5:
                    76:63:79:1a:5e:1c:dc:5f:11:4a:e0:f0:98:10:45:
                    5d:86:36:65:dd:06:3b:96:f4:1e:6a:95:36:d3:51:
                    86:a7:bc:09:6e:b7:25:ab:d0:1d:ff:4b:57:ff:f9:
                    21:b4:0c:b8:e1:e2:e8:c9:c0:d5:7b:c0:fb:93:db:
                    0c:11:81:15:2a:1f:b6:88:b8:b5:b8:83:f9:d7:db:
                    62:43:61:60:58:47:4e:16:28:1a:eb:12:3d:c1:8c:
                    c7:8e:d0:b3:a0:0f:49:88:f8:1f:45:48:52:9d:3a:
                    34:6e:1d:87:70:33:84:64:04:e1:2a:61:70:43:d8:
                    c0:6b:45:fa:14:e6:1e:d2:f3:8b:94:61:70:d0:b9:
                    ef:44:6b:92:f0:c2:60:87:f1:63:ec:d9:5f:26:83:
                    f3:7f
                Exponent: 65537 (0x10001)
    Signature Algorithm: sha256WithRSAEncryption
    Signature Value:
        52:03:28:00:29:7d:3d:ef:c7:3b:68:01:90:4a:63:24:a3:9f:
        74:ef:cd:5e:ed:3a:b6:82:c0:c6:51:db:94:01:26:ff:a0:3d:
        20:b9:d6:9a:23:a1:49:49:d0:1a:0c:67:93:03:16:64:61:5d:
        e5:60:df:8f:33:c1:5a:82:c6:ae:9c:94:75:1d:60:ed:4e:b7:
        fb:89:8e:91:08:44:47:1a:eb:78:74:7b:24:a5:b2:62:38:2c:
        48:af:13:26:da:e0:51:d2:52:6b:8f:5f:04:e8:11:48:d4:d5:
        32:bd:1e:48:8f:07:a3:5f:00:84:e6:50:35:97:95:ba:6d:6d:
        fd:ea:28:44:f2:b1:e8:d7:5f:3a:83:3a:f0:e1:45:ee:89:df:
        25:8b:d3:87:1c:7b:5d:fb:c3:da:ab:b1:6f:43:43:86:13:49:
        ec:09:3a:5b:fc:e0:7e:fc:03:a8:d6:89:71:40:fc:3f:66:be:
        af:5e:52:80:b5:1b:1a:e4:33:7a:01:63:ba:14:24:4e:d2:54:
        c4:5c:c2:2b:00:d9:8c:c0:5b:2a:e7:eb:5e:bc:86:c2:48:f9:
        5e:06:1a:62:cb:3f:df:05:17:4d:49:cf:15:10:06:cc:0c:ff:
        e9:ae:55:e3:d5:75:13:df:53:59:23:de:85:38:8f:4b:7c:49:
        c5:19:81:c3:9c:c3:c2:fe:cb:bc:ab:88:67:89:c9:80:b8:56:
        bf:30:2d:49:31:9b:9a:3e:d0:1e:c2:7b:05:5a:ab:07:7e:d5:
        f3:c9:6d:d8:16:a2:d8:99:67:f9:00:d4:82:55:1b:a5:07:1f:
        e9:48:c9:f7:b1:13:37:3b:d0:4e:c7:6f:48:63:b5:d7:0c:cd:
        40:0a:2f:a9:b7:eb:69:0d:d9:5b:f6:44:25:60:37:ef:80:33:
        ca:32:aa:0e:0a:13:54:95:18:ad:85:e0:28:83:ec:0c:8e:3c:
        fb:64:3e:eb:b8:49:20:3e:2e:dc:73:af:5a:f4:f4:8f:18:0a:
        03:0d:66:bf:7f:e4:4d:3e:a4:5f:18:6d:24:b4:38:e7:94:3f:
        77:69:07:78:05:a5:62:ba:e1:97:cc:a5:5e:b9:dd:12:28:e0:
        23:1f:5b:3f:4e:8d:4f:e8:25:31:e8:cf:64:76:3c:b6:8f:bd:
        ff:d2:18:80:f3:76:01:d5:2b:36:be:41:4b:aa:24:a9:1c:05:
        77:e0:be:3b:6e:30:96:27:b3:0d:e7:7a:ec:31:1e:6b:71:be:
        08:37:44:a6:7d:08:d3:0f:35:4b:71:6b:8f:f1:eb:c5:e8:f3:
        16:72:be:67:5e:c9:fc:56:8f:e4:d7:9c:e6:83:d8:c6:ab:60:
        50:65:d2:06:c3:e5:24:e7
-----BEGIN CERTIFICATE-----
MIIDlTCCAX0CAQQwDQYJKoZIhvcNAQELBQAwEDEOMAwGA1UEAwwFQUdVTEUwHhcN
MjYwNDI5MjE1MjI1WhcNMjcwNDI5MjE1MjI1WjARMQ8wDQYDVQQDDAZtYXJpbzIw
ggEiMA0GCSqGSIb3DQEBAQUAA4IBDwAwggEKAoIBAQDboKbfNib/H3y2mUgE39QD
UhaRobZzZ7S4sgf9630wJchyLzTEYQxvFZCAU1gwd+wZ3KBSRP2lP19r/yebRbwr
aRZa+KmgQIaKVO3hyi72+MEbusMtSRbV04hFXySJttmw5e9xaIz+xXZjeRpeHNxf
EUrg8JgQRV2GNmXdBjuW9B5qlTbTUYanvAlutyWr0B3/S1f/+SG0DLjh4ujJwNV7
wPuT2wwRgRUqH7aIuLW4g/nX22JDYWBYR04WKBrrEj3BjMeO0LOgD0mI+B9FSFKd
OjRuHYdwM4RkBOEqYXBD2MBrRfoU5h7S84uUYXDQue9Ea5LwwmCH8WPs2V8mg/N/
AgMBAAEwDQYJKoZIhvcNAQELBQADggIBAFIDKAApfT3vxztoAZBKYySjn3TvzV7t
OraCwMZR25QBJv+gPSC51pojoUlJ0BoMZ5MDFmRhXeVg348zwVqCxq6clHUdYO1O
t/uJjpEIREca63h0eySlsmI4LEivEyba4FHSUmuPXwToEUjU1TK9HkiPB6NfAITm
UDWXlbptbf3qKETysejXXzqDOvDhRe6J3yWL04cce137w9qrsW9DQ4YTSewJOlv8
4H78A6jWiXFA/D9mvq9eUoC1GxrkM3oBY7oUJE7SVMRcwisA2YzAWyrn6168hsJI
+V4GGmLLP98FF01JzxUQBswM/+muVePVdRPfU1kj3oU4j0t8ScUZgcOcw8L+y7yr
iGeJyYC4Vr8wLUkxm5o+0B7CewVaqwd+1fPJbdgWotiZZ/kA1IJVG6UHH+lIyfex
Ezc70E7Hb0hjtdcMzUAKL6m362kN2Vv2RCVgN++AM8oyqg4KE1SVGK2F4CiD7AyO
PPtkPuu4SSA+Ltxzr1r09I8YCgMNZr9/5E0+pF8YbSS0OOeUP3dpB3gFpWK64ZfM
pV653RIo4CMfWz9OjU/oJTHoz2R2PLaPvf/SGIDzdgHVKza+QUuqJKkcBXfgvjtu
MJYnsw3neuwxHmtxvgg3RKZ9CNMPNUtxa4/x68Xo8xZyvmdeyfxWj+TXnOaD2Mar
YFBl0gbD5STn
-----END CERTIFICATE-----
