Certificate:
    Data:
        Version: 1 (0x0)
        Serial Number: 4 (0x4)
        Signature Algorithm: sha256WithRSAEncryption
        Issuer: CN=AGULE
        Validity
            Not Before: Jun  5 11:48:14 2026 GMT
            Not After : Jun  5 11:48:14 2027 GMT
        Subject: CN=prueba2
        Subject Public Key Info:
            Public Key Algorithm: rsaEncryption
                Public-Key: (2048 bit)
                Modulus:
                    00:ab:57:d7:75:21:29:e8:af:a3:f4:b5:d2:90:57:
                    02:7e:ab:af:23:56:11:47:d7:50:92:9a:2c:64:12:
                    17:b3:60:f3:20:42:14:f0:76:93:b1:17:62:e8:99:
                    c8:c6:a0:72:3b:65:c4:5f:e6:04:1f:c0:99:6b:cd:
                    c9:97:15:1d:ed:ed:46:f1:8a:43:28:ed:0d:90:de:
                    1e:04:59:33:ba:ab:bd:c4:db:32:cf:78:e3:a8:f7:
                    68:c9:8c:bf:1d:eb:e7:25:f8:8c:b2:8e:86:bd:a8:
                    8b:6b:c1:ad:9c:84:9e:12:0a:d4:e8:d8:bd:3c:1b:
                    09:5f:49:80:9e:2d:14:fc:ce:a9:55:6c:45:97:ef:
                    c2:a5:f3:ab:52:2a:fa:a6:40:cc:0b:c1:2f:51:26:
                    0b:3a:a2:64:29:c0:6b:63:02:45:3b:62:b7:a5:5b:
                    00:4a:e0:6b:47:ed:35:f6:4c:24:b7:50:05:cf:25:
                    2c:00:23:77:30:94:13:91:54:56:c1:af:39:eb:df:
                    28:ac:a3:58:ce:63:c0:8c:e4:c0:2c:ac:2c:0e:0e:
                    2a:14:81:a7:1d:b4:ae:9c:f9:21:c9:0b:b7:3a:18:
                    ae:d5:68:0a:c2:7d:5c:24:7d:2e:82:2b:e6:b9:74:
                    c1:ff:1e:d2:0e:90:bf:2a:93:33:64:c4:43:5d:13:
                    16:17
                Exponent: 65537 (0x10001)
    Signature Algorithm: sha256WithRSAEncryption
    Signature Value:
        54:74:6a:6f:79:2a:7a:0e:a4:25:e2:4d:18:4d:0b:e8:32:8e:
        47:4e:5b:4a:49:83:c5:73:5a:7a:7b:0a:d9:e1:be:21:95:7b:
        2f:aa:20:34:50:8d:ab:64:88:19:25:03:57:aa:a4:66:c5:81:
        af:6c:ac:d7:24:e4:b3:56:74:07:d1:72:ba:04:65:f1:87:dd:
        bf:c5:b5:6a:3c:ae:51:35:3f:a5:3b:3d:cc:23:c4:4a:86:c2:
        1f:a8:6e:8b:53:24:31:7a:2c:71:e9:ac:99:56:95:67:78:94:
        99:6e:fd:22:27:3b:ae:52:71:b8:e7:e3:73:8b:82:10:c6:de:
        c4:64:0b:bc:d6:5c:f8:82:05:0c:4d:d4:a0:38:dc:31:4d:c5:
        74:c2:bb:cc:34:0a:eb:d1:c1:1b:5e:6e:30:69:94:8f:25:8d:
        dc:2f:94:d8:f4:0d:b1:54:83:3e:e4:88:a6:1a:4b:96:c8:3b:
        ca:49:77:22:d8:1b:2c:de:4b:5b:94:0a:b0:fc:a5:96:11:d3:
        d1:81:d1:61:53:a6:3d:09:06:67:50:5f:a2:df:47:8c:21:c1:
        6e:8d:51:4c:f7:cb:e9:09:cf:db:bf:73:3d:c5:c0:48:ed:5f:
        2b:0f:a3:16:43:b6:8c:ec:f2:dd:ef:00:0b:e7:be:e7:c7:f5:
        32:dd:a6:ba:6b:93:70:06:17:46:3f:fd:73:43:a7:90:c2:24:
        86:5f:5d:bd:ad:7a:23:75:39:ec:8a:fa:3f:96:c7:8a:cd:df:
        e7:05:18:d5:a1:f5:5d:4b:bb:1e:4d:19:f8:87:6b:25:51:d8:
        8c:10:2c:b5:3d:98:a9:47:2e:5c:c0:79:94:bd:38:cb:e4:a7:
        1c:63:a9:0e:d4:8c:a5:d1:21:87:0d:d8:fe:7e:39:6b:dd:4e:
        b3:51:07:08:40:e8:dd:a0:1a:51:8d:dc:e3:55:b6:69:cb:7f:
        5c:a6:f1:f8:ef:e1:3b:47:18:39:c4:fc:81:bb:eb:03:5e:ab:
        10:d7:f7:27:88:fe:1f:0e:a3:80:c9:34:8d:03:2f:bb:3d:12:
        76:35:08:d7:e4:b6:81:84:71:11:43:db:1f:99:ea:4e:e5:b5:
        ce:da:38:ac:87:f6:f3:56:15:29:1a:2b:6b:05:04:61:95:78:
        88:7d:64:58:38:d1:60:a3:58:79:af:91:99:b6:c5:30:cc:5e:
        db:0b:17:9a:40:c4:ed:60:b4:cc:f7:7b:48:ac:5a:10:9a:03:
        68:7d:8e:74:c8:1b:29:eb:51:20:a8:3c:d5:7d:30:8b:7c:79:
        d0:7e:cf:c4:49:da:5b:9c:91:c5:e3:d8:b6:34:1c:ce:bf:bd:
        30:2a:2d:19:f3:df:84:84
-----BEGIN CERTIFICATE-----
MIIDljCCAX4CAQQwDQYJKoZIhvcNAQELBQAwEDEOMAwGA1UEAwwFQUdVTEUwHhcN
MjYwNjA1MTE0ODE0WhcNMjcwNjA1MTE0ODE0WjASMRAwDgYDVQQDDAdwcnVlYmEy
MIIBIjANBgkqhkiG9w0BAQEFAAOCAQ8AMIIBCgKCAQEAq1fXdSEp6K+j9LXSkFcC
fquvI1YRR9dQkposZBIXs2DzIEIU8HaTsRdi6JnIxqByO2XEX+YEH8CZa83JlxUd
7e1G8YpDKO0NkN4eBFkzuqu9xNsyz3jjqPdoyYy/HevnJfiMso6GvaiLa8GtnISe
EgrU6Ni9PBsJX0mAni0U/M6pVWxFl+/CpfOrUir6pkDMC8EvUSYLOqJkKcBrYwJF
O2K3pVsASuBrR+019kwkt1AFzyUsACN3MJQTkVRWwa85698orKNYzmPAjOTALKws
Dg4qFIGnHbSunPkhyQu3Ohiu1WgKwn1cJH0ugivmuXTB/x7SDpC/KpMzZMRDXRMW
FwIDAQABMA0GCSqGSIb3DQEBCwUAA4ICAQBUdGpveSp6DqQl4k0YTQvoMo5HTltK
SYPFc1p6ewrZ4b4hlXsvqiA0UI2rZIgZJQNXqqRmxYGvbKzXJOSzVnQH0XK6BGXx
h92/xbVqPK5RNT+lOz3MI8RKhsIfqG6LUyQxeixx6ayZVpVneJSZbv0iJzuuUnG4
5+Nzi4IQxt7EZAu81lz4ggUMTdSgONwxTcV0wrvMNArr0cEbXm4waZSPJY3cL5TY
9A2xVIM+5IimGkuWyDvKSXci2Bss3ktblAqw/KWWEdPRgdFhU6Y9CQZnUF+i30eM
IcFujVFM98vpCc/bv3M9xcBI7V8rD6MWQ7aM7PLd7wAL577nx/Uy3aa6a5NwBhdG
P/1zQ6eQwiSGX129rXojdTnsivo/lseKzd/nBRjVofVdS7seTRn4h2slUdiMECy1
PZipRy5cwHmUvTjL5KccY6kO1Iyl0SGHDdj+fjlr3U6zUQcIQOjdoBpRjdzjVbZp
y39cpvH47+E7Rxg5xPyBu+sDXqsQ1/cniP4fDqOAyTSNAy+7PRJ2NQjX5LaBhHER
Q9sfmepO5bXO2jish/bzVhUpGitrBQRhlXiIfWRYONFgo1h5r5GZtsUwzF7bCxea
QMTtYLTM93tIrFoQmgNofY50yBsp61EgqDzVfTCLfHnQfs/ESdpbnJHF49i2NBzO
v70wKi0Z89+EhA==
-----END CERTIFICATE-----
