Certificate:
    Data:
        Version: 1 (0x0)
        Serial Number: 5 (0x5)
        Signature Algorithm: sha256WithRSAEncryption
        Issuer: CN=AGULE
        Validity
            Not Before: Jun  5 12:40:26 2026 GMT
            Not After : Jun  5 12:40:26 2027 GMT
        Subject: CN=prueba1
        Subject Public Key Info:
            Public Key Algorithm: rsaEncryption
                Public-Key: (2048 bit)
                Modulus:
                    00:aa:98:04:54:e0:6f:32:77:14:fd:34:ef:66:c1:
                    98:c1:4e:47:49:fb:6b:e4:3f:11:b8:36:27:e7:26:
                    7d:21:e2:7f:84:bd:85:9f:70:81:ee:5c:70:3a:06:
                    f2:01:aa:65:5e:70:f9:81:90:ff:32:f1:52:4e:bf:
                    af:04:ed:3c:12:0f:8f:07:66:f1:43:ac:b5:7b:33:
                    c4:1b:f2:88:de:fe:1f:eb:03:06:e9:67:e7:e4:29:
                    cc:cc:ca:3b:69:92:73:c6:b8:b8:04:db:5b:c0:34:
                    d4:bf:19:7a:46:dd:b4:d0:8e:63:62:4b:02:21:4a:
                    75:7f:29:81:7d:49:1d:c1:3a:29:c1:94:23:d0:95:
                    57:72:92:c2:2e:b7:cd:57:f5:0c:e6:c2:30:14:5e:
                    84:de:0f:d0:56:66:8d:b2:5b:eb:e5:86:d3:c3:a9:
                    70:92:4d:21:e4:93:86:78:e8:4b:42:8d:27:20:b3:
                    77:97:de:14:ed:af:d6:5c:df:3c:a3:db:e8:34:ca:
                    5a:2d:0c:25:e0:2f:38:51:ed:99:cb:f5:cc:33:ba:
                    b8:7f:52:88:69:6d:c0:d1:1f:03:53:07:64:c2:4d:
                    d0:a1:ba:c6:78:4d:57:ed:13:e0:97:d4:68:9e:db:
                    70:4c:2b:0f:4d:5f:20:29:f9:ed:bb:08:2e:00:f3:
                    e3:6b
                Exponent: 65537 (0x10001)
    Signature Algorithm: sha256WithRSAEncryption
    Signature Value:
        3c:77:74:65:e1:64:fb:c7:01:d7:01:e1:bf:e5:3d:e1:f5:68:
        f1:7f:90:c5:4a:04:f2:83:e0:99:3a:ff:b5:ff:e6:00:9a:6d:
        4c:7f:e6:ac:0e:86:73:72:16:57:55:80:4b:59:35:63:91:df:
        1e:63:7a:78:f3:93:38:88:d1:ca:7c:48:cb:9c:c0:50:fe:46:
        8b:30:55:55:10:3b:42:45:66:94:c6:36:a5:d2:da:47:ad:ab:
        de:c7:0b:45:4b:a9:b9:ac:ac:48:57:35:b9:af:dd:9e:65:58:
        cf:08:13:a6:23:ee:04:e0:31:ba:97:27:75:e7:dc:f7:3d:9f:
        52:27:0e:01:4c:83:1e:b7:fb:b1:62:66:9e:21:08:97:bf:91:
        99:bf:7a:35:40:57:b9:6f:68:94:a0:fb:37:1f:45:25:db:81:
        fc:34:f0:c0:f0:eb:cd:33:34:a4:03:a1:6b:a1:50:42:30:c4:
        ad:a7:b1:d1:5b:60:8c:59:e6:7b:9a:b8:d5:5a:e8:04:07:44:
        f1:5c:8e:1d:db:f4:9b:7f:e3:96:7e:61:ec:12:38:93:6c:64:
        14:f1:02:78:be:cd:6e:48:83:c0:01:11:83:4f:c4:75:46:75:
        10:6e:a4:bc:94:7d:77:df:ed:cc:71:88:74:d2:39:8e:ca:a7:
        c0:be:b1:4d:fd:2b:2d:68:d1:ba:2a:66:b5:35:57:02:b1:c4:
        b5:68:6f:12:1c:65:eb:ad:63:1a:79:62:01:d4:f0:d6:4d:63:
        e5:b6:1a:0e:7b:73:ac:03:e8:fe:06:6c:d7:6a:4d:0e:55:0a:
        9a:c4:f9:bb:be:60:cc:05:2e:20:c3:21:f2:60:17:95:40:86:
        7e:d0:9e:cb:90:a9:6f:64:b6:6e:cc:c2:04:da:cf:dd:90:6c:
        b5:88:80:dd:95:ec:67:d1:9c:37:82:a0:d0:ed:47:1c:16:53:
        bd:ee:9a:de:4a:17:44:ad:47:48:63:e1:f6:55:29:8e:28:89:
        cd:4a:17:97:41:50:0a:c3:11:47:9d:53:83:8f:25:40:99:ad:
        7b:56:92:0f:d0:c0:f7:3b:b5:ba:d7:12:e7:29:64:46:97:9b:
        26:91:a9:e7:1f:11:d4:d8:d4:6d:d8:e7:db:d8:cc:e5:3c:b0:
        dd:9e:9e:5e:15:e5:aa:70:5a:b2:84:e9:4a:fc:1e:9f:64:a5:
        57:94:f2:e5:65:98:9e:1c:9c:94:ed:38:b4:ae:82:f7:fc:c5:
        da:3a:eb:2e:5f:1f:72:bb:76:fa:17:4b:5a:4a:56:3f:8f:fe:
        56:3a:86:ee:1f:66:0a:58:5b:f0:97:11:7c:0b:93:7f:8a:72:
        c0:cb:0c:28:ad:59:b2:7e
-----BEGIN CERTIFICATE-----
MIIDljCCAX4CAQUwDQYJKoZIhvcNAQELBQAwEDEOMAwGA1UEAwwFQUdVTEUwHhcN
MjYwNjA1MTI0MDI2WhcNMjcwNjA1MTI0MDI2WjASMRAwDgYDVQQDDAdwcnVlYmEx
MIIBIjANBgkqhkiG9w0BAQEFAAOCAQ8AMIIBCgKCAQEAqpgEVOBvMncU/TTvZsGY
wU5HSftr5D8RuDYn5yZ9IeJ/hL2Fn3CB7lxwOgbyAaplXnD5gZD/MvFSTr+vBO08
Eg+PB2bxQ6y1ezPEG/KI3v4f6wMG6Wfn5CnMzMo7aZJzxri4BNtbwDTUvxl6Rt20
0I5jYksCIUp1fymBfUkdwTopwZQj0JVXcpLCLrfNV/UM5sIwFF6E3g/QVmaNslvr
5YbTw6lwkk0h5JOGeOhLQo0nILN3l94U7a/WXN88o9voNMpaLQwl4C84Ue2Zy/XM
M7q4f1KIaW3A0R8DUwdkwk3QobrGeE1X7RPgl9RonttwTCsPTV8gKfntuwguAPPj
awIDAQABMA0GCSqGSIb3DQEBCwUAA4ICAQA8d3Rl4WT7xwHXAeG/5T3h9Wjxf5DF
SgTyg+CZOv+1/+YAmm1Mf+asDoZzchZXVYBLWTVjkd8eY3p485M4iNHKfEjLnMBQ
/kaLMFVVEDtCRWaUxjal0tpHravexwtFS6m5rKxIVzW5r92eZVjPCBOmI+4E4DG6
lyd159z3PZ9SJw4BTIMet/uxYmaeIQiXv5GZv3o1QFe5b2iUoPs3H0Ul24H8NPDA
8OvNMzSkA6FroVBCMMStp7HRW2CMWeZ7mrjVWugEB0TxXI4d2/Sbf+OWfmHsEjiT
bGQU8QJ4vs1uSIPAARGDT8R1RnUQbqS8lH133+3McYh00jmOyqfAvrFN/SstaNG6
Kma1NVcCscS1aG8SHGXrrWMaeWIB1PDWTWPlthoOe3OsA+j+BmzXak0OVQqaxPm7
vmDMBS4gwyHyYBeVQIZ+0J7LkKlvZLZuzMIE2s/dkGy1iIDdlexn0Zw3gqDQ7Ucc
FlO97preShdErUdIY+H2VSmOKInNSheXQVAKwxFHnVODjyVAma17VpIP0MD3O7W6
1xLnKWRGl5smkannHxHU2NRt2Ofb2MzlPLDdnp5eFeWqcFqyhOlK/B6fZKVXlPLl
ZZieHJyU7Ti0roL3/MXaOusuXx9yu3b6F0taSlY/j/5WOobuH2YKWFvwlxF8C5N/
inLAywworVmyfg==
-----END CERTIFICATE-----
