Certificate:
    Data:
        Version: 1 (0x0)
        Serial Number: 5 (0x5)
        Signature Algorithm: sha256WithRSAEncryption
        Issuer: CN=AGULE
        Validity
            Not Before: Apr  5 00:01:47 2026 GMT
            Not After : Apr  5 00:01:47 2027 GMT
        Subject: CN=1
        Subject Public Key Info:
            Public Key Algorithm: rsaEncryption
                Public-Key: (2048 bit)
                Modulus:
                    00:c1:75:1a:41:63:a5:f6:ac:81:a9:dc:84:bc:22:
                    8d:c8:c0:cb:4a:b0:e5:78:57:d4:6e:c3:2e:fd:c0:
                    d2:03:51:17:19:70:46:e5:c6:89:f3:90:7f:e2:9e:
                    75:8b:d3:f8:a1:69:2b:02:cc:c1:c8:1e:9d:f9:ab:
                    e1:35:b3:ea:0e:4a:3a:72:1e:df:84:87:d6:e1:b8:
                    b8:2f:1d:d9:86:ee:12:db:f7:ef:f6:f2:cd:42:23:
                    6d:12:07:2a:23:d8:88:88:23:34:d7:fb:03:32:6a:
                    47:23:86:1c:f6:69:73:0a:02:ce:cc:6a:08:07:16:
                    9d:cf:e9:d7:af:fd:5d:24:70:63:ff:b7:34:8e:16:
                    f3:73:21:32:d8:fd:74:93:fb:53:00:52:fc:82:74:
                    c0:01:48:83:77:6c:d3:88:7e:b3:ba:64:35:e1:dc:
                    5e:98:ef:12:3a:3a:d8:bd:b4:4e:50:bc:6e:cb:c0:
                    d8:4e:6a:b5:74:e7:6a:36:d5:13:94:b8:8d:ec:fa:
                    a0:93:f6:11:59:a2:b6:75:d5:df:6b:5d:78:7d:b9:
                    c8:de:14:e3:b3:ae:e2:7c:00:60:04:20:b0:18:8e:
                    30:aa:67:7f:1a:e5:a0:39:a3:6d:6b:66:40:47:51:
                    03:56:ea:f1:e2:30:4b:78:2a:c7:bd:53:67:6a:36:
                    85:15
                Exponent: 65537 (0x10001)
    Signature Algorithm: sha256WithRSAEncryption
    Signature Value:
        56:3a:c9:76:85:19:a4:c6:2e:ff:72:1e:16:5e:8e:ba:89:df:
        f2:77:78:8f:8c:0f:57:a3:19:f6:10:f6:a8:b2:89:6a:59:95:
        0f:a3:d7:98:29:88:a5:4b:be:bd:d2:33:20:8a:f9:90:b6:8a:
        3b:1d:38:55:6a:c1:de:11:ea:bd:49:8e:da:b9:ab:22:f3:bb:
        ee:77:eb:bc:15:d8:83:b1:3a:5c:4f:3d:68:0c:26:dd:d9:10:
        26:1a:cc:4e:27:4c:22:bb:63:ce:1e:ec:2e:e7:42:b3:83:80:
        81:02:6b:7c:3c:2c:96:68:b7:9b:04:d3:29:22:6d:50:0d:41:
        7d:60:53:1a:21:a4:42:fb:03:93:83:4d:d1:f3:59:b2:f6:c4:
        66:74:1b:25:9e:cf:cf:e0:49:13:13:da:63:f0:1f:a2:0c:72:
        10:2e:ae:1b:ff:e7:62:21:70:90:0f:70:a2:33:ac:42:73:9a:
        f1:0b:af:90:d3:26:a2:75:90:a7:62:87:01:8f:71:83:e5:e3:
        ee:7f:2d:f7:b4:8c:5d:0e:5c:b5:ad:35:5f:82:b7:36:f7:e5:
        bd:2a:ae:3e:84:10:fe:c7:e4:ae:44:cb:ce:51:4d:f3:53:a3:
        79:3e:19:5c:ab:ab:2a:62:39:47:ca:4b:39:95:23:89:ed:26:
        f7:ab:7b:07:70:ff:84:92:6b:fa:5e:e5:b2:c5:6f:3e:55:78:
        8c:d6:79:5d:48:17:5e:fc:1d:70:54:b2:4f:15:98:5c:40:38:
        24:72:6d:b7:6a:62:ed:6a:83:5f:9a:be:cc:2d:67:d5:43:81:
        a0:99:1c:0e:ca:2a:c7:db:ac:13:4f:9f:d6:93:fd:75:fe:fc:
        cc:e3:91:96:58:fd:0e:bc:f5:af:03:3b:7a:cf:a7:33:47:b1:
        b1:84:52:39:db:ae:e0:f5:90:8c:e3:19:b3:7a:69:2c:7d:84:
        3c:62:18:8b:1a:8e:eb:02:dc:e4:cd:8e:c3:09:f9:5e:11:9a:
        60:1b:8a:60:40:ac:12:27:5d:c9:11:c1:3a:79:9f:d6:19:6c:
        d8:b6:a7:b9:f5:c7:37:ab:f8:2c:55:10:2b:63:45:a8:57:60:
        ab:3e:68:94:93:e8:7f:2a:78:be:c2:11:de:cc:fb:68:ea:c3:
        71:f9:57:d6:43:7c:fd:90:be:f7:47:69:67:d9:25:e7:60:af:
        30:ba:fc:8e:1d:f5:46:45:16:b2:22:a4:6f:d3:93:73:21:5b:
        f7:79:ff:cc:7d:6a:08:5d:50:b1:3c:8d:c5:20:95:8f:06:b3:
        ab:78:a6:3f:0f:77:f3:cf:ab:8b:0e:dd:28:db:f2:55:f9:7b:
        53:a7:c4:cc:cc:5c:b1:bf
-----BEGIN CERTIFICATE-----
MIIDkDCCAXgCAQUwDQYJKoZIhvcNAQELBQAwEDEOMAwGA1UEAwwFQUdVTEUwHhcN
MjYwNDA1MDAwMTQ3WhcNMjcwNDA1MDAwMTQ3WjAMMQowCAYDVQQDDAExMIIBIjAN
BgkqhkiG9w0BAQEFAAOCAQ8AMIIBCgKCAQEAwXUaQWOl9qyBqdyEvCKNyMDLSrDl
eFfUbsMu/cDSA1EXGXBG5caJ85B/4p51i9P4oWkrAszByB6d+avhNbPqDko6ch7f
hIfW4bi4Lx3Zhu4S2/fv9vLNQiNtEgcqI9iIiCM01/sDMmpHI4Yc9mlzCgLOzGoI
Bxadz+nXr/1dJHBj/7c0jhbzcyEy2P10k/tTAFL8gnTAAUiDd2zTiH6zumQ14dxe
mO8SOjrYvbROULxuy8DYTmq1dOdqNtUTlLiN7Pqgk/YRWaK2ddXfa114fbnI3hTj
s67ifABgBCCwGI4wqmd/GuWgOaNta2ZAR1EDVurx4jBLeCrHvVNnajaFFQIDAQAB
MA0GCSqGSIb3DQEBCwUAA4ICAQBWOsl2hRmkxi7/ch4WXo66id/yd3iPjA9Xoxn2
EPaosolqWZUPo9eYKYilS7690jMgivmQtoo7HThVasHeEeq9SY7auasi87vud+u8
FdiDsTpcTz1oDCbd2RAmGsxOJ0wiu2POHuwu50Kzg4CBAmt8PCyWaLebBNMpIm1Q
DUF9YFMaIaRC+wOTg03R81my9sRmdBslns/P4EkTE9pj8B+iDHIQLq4b/+diIXCQ
D3CiM6xCc5rxC6+Q0yaidZCnYocBj3GD5ePufy33tIxdDly1rTVfgrc29+W9Kq4+
hBD+x+SuRMvOUU3zU6N5Phlcq6sqYjlHyks5lSOJ7Sb3q3sHcP+Ekmv6XuWyxW8+
VXiM1nldSBde/B1wVLJPFZhcQDgkcm23amLtaoNfmr7MLWfVQ4GgmRwOyirH26wT
T5/Wk/11/vzM45GWWP0OvPWvAzt6z6czR7GxhFI5267g9ZCM4xmzemksfYQ8YhiL
Go7rAtzkzY7DCfleEZpgG4pgQKwSJ13JEcE6eZ/WGWzYtqe59cc3q/gsVRArY0Wo
V2CrPmiUk+h/Kni+whHezPto6sNx+VfWQ3z9kL73R2ln2SXnYK8wuvyOHfVGRRay
IqRv05NzIVv3ef/MfWoIXVCxPI3FIJWPBrOreKY/D3fzz6uLDt0o2/JV+XtTp8TM
zFyxvw==
-----END CERTIFICATE-----
