Certificate:
    Data:
        Version: 1 (0x0)
        Serial Number: 5 (0x5)
        Signature Algorithm: sha256WithRSAEncryption
        Issuer: CN=AGULE
        Validity
            Not Before: Apr 25 11:42:06 2026 GMT
            Not After : Apr 25 11:42:06 2027 GMT
        Subject: CN=mario3
        Subject Public Key Info:
            Public Key Algorithm: rsaEncryption
                Public-Key: (2048 bit)
                Modulus:
                    00:9a:c5:dd:07:85:e4:c5:81:57:4e:bc:92:75:db:
                    dd:f4:0b:ee:41:36:57:c6:49:59:b8:9f:cc:4a:74:
                    eb:95:0d:dc:88:e8:c0:0b:cb:bc:0b:c1:ce:13:7e:
                    12:f4:6d:e8:c9:26:b0:56:bc:79:da:2d:97:0e:48:
                    58:53:37:49:cb:b6:1d:62:e8:58:48:79:50:45:cd:
                    98:bf:55:6f:6e:d7:44:bd:84:62:c9:7d:cc:f1:b6:
                    50:dd:f9:0f:dd:7f:e0:34:ce:b9:53:8d:79:44:45:
                    f5:24:8b:f3:34:e8:d8:e4:61:50:c7:a9:96:34:25:
                    4a:ec:97:21:36:b4:52:6f:7f:e8:e6:a6:c8:fb:56:
                    bc:7a:e4:bd:07:05:88:53:c5:f7:63:a9:e7:2e:3b:
                    5e:0b:5a:3a:c5:4b:cb:f6:b7:4b:7e:36:f9:1f:a3:
                    f3:61:32:c4:3d:43:bf:1f:85:b8:b5:3a:16:27:55:
                    f9:e9:68:a7:a4:f2:7c:ed:57:70:15:23:ac:56:ac:
                    d0:3e:39:c5:c5:a0:f5:39:3d:f9:47:43:aa:9c:85:
                    11:45:0c:2b:ca:31:e6:ff:83:9d:5f:30:c0:f8:e2:
                    d5:fc:5b:5a:f4:7d:03:af:27:92:7e:80:9b:28:ee:
                    92:5c:66:15:61:78:8d:49:ba:5c:b9:ca:e3:3a:44:
                    e9:d3
                Exponent: 65537 (0x10001)
    Signature Algorithm: sha256WithRSAEncryption
    Signature Value:
        52:d2:e5:0d:05:3b:56:9e:7a:7a:64:fc:6b:58:b6:58:25:c7:
        3d:7e:74:1d:08:94:4e:33:b0:d0:dd:97:5e:04:bb:32:f1:09:
        80:78:92:96:b9:b5:84:0a:91:d7:ce:08:0b:ec:12:2b:3c:a1:
        d4:c4:50:9e:81:0a:6d:f5:21:1c:6a:fe:93:33:4f:fb:fc:1e:
        82:4b:df:ba:15:58:ce:6d:f5:27:3d:51:70:80:c2:fc:45:e3:
        68:f3:1d:84:84:0f:ee:7e:ce:da:96:1f:02:28:25:31:16:23:
        81:9d:f1:b2:0c:72:05:1d:06:8d:5b:95:05:f2:42:2f:db:a9:
        8e:15:3d:00:a0:0e:72:90:c5:79:b1:a2:0b:ee:3a:ea:3a:5d:
        15:0e:4e:4d:b6:0a:f8:a0:93:a8:86:4c:90:59:d0:cd:60:58:
        70:44:a9:13:66:8e:a8:16:33:ba:c6:46:7d:13:7d:c7:de:32:
        b3:4a:b7:0c:a6:3b:ca:d5:f1:8e:86:dd:11:12:1a:4e:54:9c:
        56:c4:bb:73:a7:c5:13:3d:0d:9f:e5:e0:1a:0c:0e:78:58:fc:
        2e:7a:dd:89:e4:34:83:8f:83:a9:0d:a4:11:ef:d0:3c:73:7b:
        e4:ec:28:9d:43:20:4a:af:cb:3a:41:4c:71:fa:2a:f7:7c:7f:
        04:a6:15:66:6a:8b:c3:89:8d:17:40:41:31:94:51:74:84:9f:
        09:e0:8b:88:f2:bc:4d:db:8b:b5:29:f5:11:48:41:c6:60:d1:
        4e:b3:65:b4:49:fc:48:dc:4c:d9:93:2c:e1:18:b3:af:19:9f:
        dc:89:ce:b2:cb:65:0a:12:d5:b9:11:ac:84:fd:3b:53:36:89:
        34:81:b4:a2:8d:1d:3b:ad:3a:8d:f3:1b:41:d8:5d:78:a0:a1:
        4d:7e:46:6b:c0:ec:49:5e:87:de:cc:10:f7:36:af:14:b5:41:
        0b:58:26:70:c7:6d:73:d4:52:8b:7f:58:74:7a:07:44:51:bd:
        8c:30:84:3d:5f:85:c4:d3:f3:33:58:0d:38:91:cd:b3:39:0b:
        36:15:07:46:54:b3:1b:64:b5:cc:59:93:16:da:69:3e:80:62:
        87:20:53:94:bc:d8:13:ce:15:ef:97:06:90:80:6c:b6:0e:89:
        4a:58:80:0c:40:17:af:50:80:35:cd:41:d3:89:b9:11:be:c1:
        d5:13:93:c2:f0:64:04:a9:43:00:82:4e:72:ad:50:0f:df:98:
        0a:ac:b9:0a:61:57:7c:a4:14:54:cd:9d:28:8a:28:b9:bd:45:
        c8:cb:6c:23:8c:5e:98:8f:aa:58:25:f7:5d:61:5d:e5:3d:8d:
        66:a7:fa:da:58:22:5b:12
-----BEGIN CERTIFICATE-----
MIIDlTCCAX0CAQUwDQYJKoZIhvcNAQELBQAwEDEOMAwGA1UEAwwFQUdVTEUwHhcN
MjYwNDI1MTE0MjA2WhcNMjcwNDI1MTE0MjA2WjARMQ8wDQYDVQQDDAZtYXJpbzMw
ggEiMA0GCSqGSIb3DQEBAQUAA4IBDwAwggEKAoIBAQCaxd0HheTFgVdOvJJ12930
C+5BNlfGSVm4n8xKdOuVDdyI6MALy7wLwc4TfhL0bejJJrBWvHnaLZcOSFhTN0nL
th1i6FhIeVBFzZi/VW9u10S9hGLJfczxtlDd+Q/df+A0zrlTjXlERfUki/M06Njk
YVDHqZY0JUrslyE2tFJvf+jmpsj7Vrx65L0HBYhTxfdjqecuO14LWjrFS8v2t0t+
Nvkfo/NhMsQ9Q78fhbi1OhYnVfnpaKek8nztV3AVI6xWrNA+OcXFoPU5PflHQ6qc
hRFFDCvKMeb/g51fMMD44tX8W1r0fQOvJ5J+gJso7pJcZhVheI1July5yuM6ROnT
AgMBAAEwDQYJKoZIhvcNAQELBQADggIBAFLS5Q0FO1aeenpk/GtYtlglxz1+dB0I
lE4zsNDdl14EuzLxCYB4kpa5tYQKkdfOCAvsEis8odTEUJ6BCm31IRxq/pMzT/v8
HoJL37oVWM5t9Sc9UXCAwvxF42jzHYSED+5+ztqWHwIoJTEWI4Gd8bIMcgUdBo1b
lQXyQi/bqY4VPQCgDnKQxXmxogvuOuo6XRUOTk22Cvigk6iGTJBZ0M1gWHBEqRNm
jqgWM7rGRn0TfcfeMrNKtwymO8rV8Y6G3RESGk5UnFbEu3OnxRM9DZ/l4BoMDnhY
/C563YnkNIOPg6kNpBHv0Dxze+TsKJ1DIEqvyzpBTHH6Kvd8fwSmFWZqi8OJjRdA
QTGUUXSEnwngi4jyvE3bi7Up9RFIQcZg0U6zZbRJ/EjcTNmTLOEYs68Zn9yJzrLL
ZQoS1bkRrIT9O1M2iTSBtKKNHTutOo3zG0HYXXigoU1+RmvA7Eleh97MEPc2rxS1
QQtYJnDHbXPUUot/WHR6B0RRvYwwhD1fhcTT8zNYDTiRzbM5CzYVB0ZUsxtktcxZ
kxbaaT6AYocgU5S82BPOFe+XBpCAbLYOiUpYgAxAF69QgDXNQdOJuRG+wdUTk8Lw
ZASpQwCCTnKtUA/fmAqsuQphV3ykFFTNnSiKKLm9RcjLbCOMXpiPqlgl911hXeU9
jWan+tpYIlsS
-----END CERTIFICATE-----
