Certificate:
    Data:
        Version: 1 (0x0)
        Serial Number: 5 (0x5)
        Signature Algorithm: sha256WithRSAEncryption
        Issuer: CN=AGULE
        Validity
            Not Before: Apr 29 22:06:54 2026 GMT
            Not After : Apr 29 22:06:54 2027 GMT
        Subject: CN=mario3
        Subject Public Key Info:
            Public Key Algorithm: rsaEncryption
                Public-Key: (2048 bit)
                Modulus:
                    00:bc:55:13:99:45:3d:b8:64:bd:1d:95:b7:91:26:
                    6f:ea:78:86:4c:41:62:c5:80:06:2e:59:08:08:fe:
                    c2:e3:59:e9:33:2d:2a:a0:56:1e:f9:eb:bb:d1:8c:
                    f0:93:43:f3:75:38:e8:87:f8:08:3a:7d:3b:16:0e:
                    41:f1:a7:61:68:1d:58:0d:11:84:1b:42:6e:92:b6:
                    0b:f3:8e:29:3a:a7:eb:92:56:3a:76:da:78:7a:58:
                    8d:25:70:b5:86:d6:0a:57:66:c8:16:5c:9e:a5:f0:
                    77:e7:33:70:cc:95:ea:12:cb:ee:40:b8:35:33:35:
                    65:df:3d:bb:6e:92:5f:91:67:b6:1c:62:a0:90:67:
                    f1:d7:f4:e5:ca:2e:86:97:99:2c:ea:5e:dc:a9:0d:
                    6b:cd:7e:aa:80:b2:6d:bd:cf:5f:80:1e:1e:e2:aa:
                    0d:8b:e4:81:87:99:0d:36:f5:80:6d:35:45:9b:3e:
                    08:e7:f7:f5:6c:09:1c:a0:99:1b:c6:d9:63:3a:71:
                    15:c6:e9:c9:ff:ff:d9:0e:f8:2e:a0:c3:69:6e:6f:
                    c3:1f:de:cc:35:23:b7:b8:ad:f6:35:0b:c1:bb:e7:
                    6f:71:1c:42:44:10:88:4c:33:59:79:b5:1d:8f:bf:
                    16:ad:1e:8d:20:06:7d:ee:11:96:66:66:23:54:87:
                    07:51
                Exponent: 65537 (0x10001)
    Signature Algorithm: sha256WithRSAEncryption
    Signature Value:
        35:76:89:d1:99:00:d9:54:d1:fc:1b:7e:d8:6e:9e:4c:d8:1b:
        51:f8:25:67:1d:22:85:6c:de:7d:6b:0a:91:09:ff:bc:52:1d:
        d3:24:ce:9b:24:43:0e:c4:6f:37:ec:ce:e7:bf:b3:67:a9:c3:
        5d:19:82:c2:6a:f4:43:95:20:f2:da:e6:bc:a0:fa:18:5e:95:
        df:dd:c0:87:e6:c4:6e:57:18:bd:2b:ff:d0:ef:4f:37:b1:c7:
        6c:06:7e:a4:0e:1a:79:94:30:61:8b:61:48:24:82:4c:fa:e5:
        c1:bc:09:11:8e:25:dd:3b:f6:29:cc:50:8e:1c:45:d5:45:84:
        f6:07:26:60:72:40:e5:d3:12:1a:7d:75:e2:5a:fd:d5:b2:f7:
        fd:63:10:41:bc:36:76:6b:ad:70:c8:4f:01:0b:77:27:fc:91:
        ca:a3:2c:dc:aa:f4:10:c6:af:25:81:00:a8:1d:62:09:35:48:
        e7:a5:d2:01:a7:d9:61:17:25:07:43:58:8b:0e:52:bd:a6:47:
        c6:60:e0:97:c0:9a:f2:ed:d8:85:27:33:2a:16:a8:5b:13:91:
        51:f7:27:95:a3:1f:36:8d:43:19:91:00:4c:1b:3f:f2:49:e8:
        ef:5d:2e:db:e3:ef:a0:92:70:f8:38:21:ae:f6:fd:59:45:fc:
        07:70:f7:e4:15:ff:8b:0e:a4:6d:1d:c1:82:e7:30:13:e5:aa:
        18:c7:a4:2e:f5:14:2c:f6:6c:60:ff:ae:0f:a2:8b:b1:4d:ff:
        46:76:2d:6b:2c:97:b2:18:8b:1c:15:9b:8d:f0:73:01:46:56:
        26:51:ac:48:43:b5:f0:7a:8c:5a:82:e0:38:47:44:3c:da:10:
        c5:c2:a9:d5:f4:20:ad:5d:11:7c:70:44:4a:e6:45:ea:7d:c4:
        51:de:97:db:5e:73:fe:a7:46:30:54:3f:b8:b0:1c:39:95:11:
        2e:c6:04:b9:f0:e1:82:a1:17:ac:ea:12:da:17:99:72:49:0f:
        74:ea:0b:fa:b9:f5:b5:0c:a5:a8:25:4a:9e:53:59:02:28:4a:
        d8:31:29:2c:08:28:6b:40:9a:ef:32:9e:89:26:71:cd:43:d8:
        ec:73:81:4a:82:24:94:0b:bd:57:a5:e2:ee:0b:e7:80:e0:b5:
        fb:94:42:46:d0:fd:42:78:96:d4:15:68:ed:0e:58:55:0e:80:
        ca:b4:03:2c:5b:52:4e:5a:60:09:70:79:b1:2c:ee:ad:59:25:
        8c:97:6e:a2:97:fd:0d:84:4c:52:91:2d:eb:53:cf:4b:67:34:
        1e:67:d4:a6:3e:45:c4:04:3d:24:2e:6a:d8:85:7a:1d:b9:8e:
        77:a0:64:8d:55:b7:20:ab
-----BEGIN CERTIFICATE-----
MIIDlTCCAX0CAQUwDQYJKoZIhvcNAQELBQAwEDEOMAwGA1UEAwwFQUdVTEUwHhcN
MjYwNDI5MjIwNjU0WhcNMjcwNDI5MjIwNjU0WjARMQ8wDQYDVQQDDAZtYXJpbzMw
ggEiMA0GCSqGSIb3DQEBAQUAA4IBDwAwggEKAoIBAQC8VROZRT24ZL0dlbeRJm/q
eIZMQWLFgAYuWQgI/sLjWekzLSqgVh7567vRjPCTQ/N1OOiH+Ag6fTsWDkHxp2Fo
HVgNEYQbQm6Stgvzjik6p+uSVjp22nh6WI0lcLWG1gpXZsgWXJ6l8HfnM3DMleoS
y+5AuDUzNWXfPbtukl+RZ7YcYqCQZ/HX9OXKLoaXmSzqXtypDWvNfqqAsm29z1+A
Hh7iqg2L5IGHmQ029YBtNUWbPgjn9/VsCRygmRvG2WM6cRXG6cn//9kO+C6gw2lu
b8Mf3sw1I7e4rfY1C8G7529xHEJEEIhMM1l5tR2PvxatHo0gBn3uEZZmZiNUhwdR
AgMBAAEwDQYJKoZIhvcNAQELBQADggIBADV2idGZANlU0fwbfthunkzYG1H4JWcd
IoVs3n1rCpEJ/7xSHdMkzpskQw7Ebzfszue/s2epw10ZgsJq9EOVIPLa5ryg+hhe
ld/dwIfmxG5XGL0r/9DvTzexx2wGfqQOGnmUMGGLYUgkgkz65cG8CRGOJd079inM
UI4cRdVFhPYHJmByQOXTEhp9deJa/dWy9/1jEEG8NnZrrXDITwELdyf8kcqjLNyq
9BDGryWBAKgdYgk1SOel0gGn2WEXJQdDWIsOUr2mR8Zg4JfAmvLt2IUnMyoWqFsT
kVH3J5WjHzaNQxmRAEwbP/JJ6O9dLtvj76CScPg4Ia72/VlF/Adw9+QV/4sOpG0d
wYLnMBPlqhjHpC71FCz2bGD/rg+ii7FN/0Z2LWssl7IYixwVm43wcwFGViZRrEhD
tfB6jFqC4DhHRDzaEMXCqdX0IK1dEXxwRErmRep9xFHel9tec/6nRjBUP7iwHDmV
ES7GBLnw4YKhF6zqEtoXmXJJD3TqC/q59bUMpaglSp5TWQIoStgxKSwIKGtAmu8y
nokmcc1D2OxzgUqCJJQLvVel4u4L54DgtfuUQkbQ/UJ4ltQVaO0OWFUOgMq0Ayxb
Uk5aYAlwebEs7q1ZJYyXbqKX/Q2ETFKRLetTz0tnNB5n1KY+RcQEPSQuatiFeh25
jnegZI1VtyCr
-----END CERTIFICATE-----
