Certificate:
    Data:
        Version: 1 (0x0)
        Serial Number: 6 (0x6)
        Signature Algorithm: sha256WithRSAEncryption
        Issuer: CN=AGULE
        Validity
            Not Before: Jun  5 15:29:14 2026 GMT
            Not After : Jun  5 15:29:14 2027 GMT
        Subject: CN=prueba2
        Subject Public Key Info:
            Public Key Algorithm: rsaEncryption
                Public-Key: (2048 bit)
                Modulus:
                    00:a8:c1:e8:c2:12:ea:22:ad:68:cf:20:27:b4:d7:
                    5a:c2:80:d9:59:a1:30:c2:29:f4:5e:cc:15:2d:b8:
                    c0:a9:7b:f3:6b:30:48:ee:06:41:c0:37:63:30:9b:
                    62:bb:04:58:37:30:c7:c9:e7:c4:31:5e:0e:de:39:
                    a0:f1:0c:92:ab:5f:ae:1c:64:c5:2c:7f:46:38:11:
                    23:9e:27:b6:30:a8:f5:c5:d1:b0:ca:ab:a2:bb:ad:
                    8e:39:e8:e9:3f:ca:7c:ef:fa:4d:d2:b6:6c:1b:f9:
                    86:e0:fe:b2:76:7d:d0:81:ac:ee:fb:f3:8b:82:9f:
                    aa:71:db:d8:58:a3:59:68:01:8c:34:fb:0f:8b:f6:
                    ae:89:eb:c8:7c:a4:0d:b8:9a:e7:37:47:11:c5:3d:
                    67:0e:c3:fc:18:40:2b:df:46:11:a6:49:c2:37:23:
                    cb:73:77:27:86:da:00:43:8e:5b:f0:07:1e:e0:d1:
                    d3:1b:b4:31:f7:f0:9b:83:89:5b:b4:e8:41:a1:ad:
                    1b:2e:00:11:fa:15:40:ef:f2:3a:c6:83:e0:40:96:
                    b6:95:9e:0c:38:0f:e6:91:d7:e1:31:ad:62:3f:d0:
                    54:d7:a9:a4:40:cf:b6:f6:1b:77:55:25:b2:7d:e7:
                    1d:24:6f:05:1a:22:2b:5a:47:6e:a5:2e:cc:d8:82:
                    5d:0d
                Exponent: 65537 (0x10001)
    Signature Algorithm: sha256WithRSAEncryption
    Signature Value:
        11:e9:9e:01:64:77:30:db:f4:1c:7b:3e:6f:c5:27:fd:1f:04:
        2e:4a:f3:ec:38:52:70:9d:40:f2:27:e5:0c:9f:20:14:9e:42:
        34:fa:df:65:a1:00:95:53:aa:7f:e4:c8:ed:0e:a0:88:e5:bb:
        9d:c2:4a:19:ef:21:80:89:36:4e:af:69:2e:2b:d5:b8:cf:5f:
        69:4b:df:f9:54:e0:1e:09:93:f8:c1:02:52:01:2d:84:24:f4:
        c8:41:cb:4b:fe:c6:8d:f1:cc:f5:7c:34:e1:a1:a0:67:61:ee:
        0c:2d:14:db:54:8e:c4:af:91:3d:6e:c6:84:9e:b8:13:46:a2:
        4d:6b:99:91:e1:d9:45:47:f7:43:c4:64:33:fc:54:f9:65:41:
        8b:af:ac:36:c6:9f:c1:5e:d7:23:2f:de:2c:58:08:95:a3:91:
        08:51:6a:23:79:86:2e:f8:3b:08:a2:a8:e4:85:a2:dc:f4:fd:
        b0:59:72:c9:fc:de:35:93:8b:31:54:99:c9:b8:c1:ce:7f:40:
        e2:e2:4f:e3:fa:88:f7:1a:27:ff:21:3a:f2:15:55:f1:e8:89:
        86:40:76:1c:a7:f4:4b:c0:70:4b:85:0a:bc:3c:32:2a:31:0f:
        92:57:35:88:fa:d9:90:27:01:a4:87:0b:f3:85:4d:76:c2:2f:
        af:a2:0a:5f:7a:78:dc:41:56:43:36:1c:99:b9:20:64:35:ed:
        ce:3d:00:23:81:23:d2:22:8a:51:87:00:ab:6b:2b:c1:aa:21:
        75:0c:83:36:62:4b:a3:49:b3:08:89:8b:70:f7:2c:c0:49:4f:
        4d:d1:95:3e:57:ca:e6:2f:5a:27:70:a1:69:86:c7:e9:35:46:
        2d:8f:06:3d:5b:0f:14:8d:7b:2e:a8:91:56:10:0b:33:fd:1b:
        5b:97:d4:e1:1c:01:4c:2f:28:2f:43:78:d7:8a:b9:21:ce:24:
        85:d0:8a:ed:3e:0b:5d:92:fa:39:19:d7:d2:c4:dd:14:48:b4:
        a2:a0:b7:eb:0e:d9:06:a9:8e:cc:2b:4f:f7:6c:58:87:b3:b3:
        cc:e8:24:dd:07:23:f8:f7:7d:94:9d:2d:7b:7f:9f:fb:b6:fd:
        bb:c7:ed:c3:c3:4f:7e:51:cf:8a:01:53:f6:bd:bc:77:32:25:
        21:b4:7f:3a:27:f0:4f:28:46:9b:b1:bc:4d:8d:a5:bf:2b:d7:
        d1:e6:a3:fc:97:ca:fd:6f:e3:48:2e:47:98:2f:b3:90:23:49:
        66:46:82:fb:b7:28:80:76:b7:5e:0b:f1:85:68:4d:ed:dd:f2:
        03:4f:fd:08:51:ff:c6:40:2e:58:ed:2c:58:b0:4b:e8:fe:c4:
        04:09:78:64:49:4a:99:5f
-----BEGIN CERTIFICATE-----
MIIDljCCAX4CAQYwDQYJKoZIhvcNAQELBQAwEDEOMAwGA1UEAwwFQUdVTEUwHhcN
MjYwNjA1MTUyOTE0WhcNMjcwNjA1MTUyOTE0WjASMRAwDgYDVQQDDAdwcnVlYmEy
MIIBIjANBgkqhkiG9w0BAQEFAAOCAQ8AMIIBCgKCAQEAqMHowhLqIq1ozyAntNda
woDZWaEwwin0XswVLbjAqXvzazBI7gZBwDdjMJtiuwRYNzDHyefEMV4O3jmg8QyS
q1+uHGTFLH9GOBEjnie2MKj1xdGwyquiu62OOejpP8p87/pN0rZsG/mG4P6ydn3Q
gazu+/OLgp+qcdvYWKNZaAGMNPsPi/auievIfKQNuJrnN0cRxT1nDsP8GEAr30YR
pknCNyPLc3cnhtoAQ45b8Ace4NHTG7Qx9/Cbg4lbtOhBoa0bLgAR+hVA7/I6xoPg
QJa2lZ4MOA/mkdfhMa1iP9BU16mkQM+29ht3VSWyfecdJG8FGiIrWkdupS7M2IJd
DQIDAQABMA0GCSqGSIb3DQEBCwUAA4ICAQAR6Z4BZHcw2/Qcez5vxSf9HwQuSvPs
OFJwnUDyJ+UMnyAUnkI0+t9loQCVU6p/5MjtDqCI5budwkoZ7yGAiTZOr2kuK9W4
z19pS9/5VOAeCZP4wQJSAS2EJPTIQctL/saN8cz1fDThoaBnYe4MLRTbVI7Er5E9
bsaEnrgTRqJNa5mR4dlFR/dDxGQz/FT5ZUGLr6w2xp/BXtcjL94sWAiVo5EIUWoj
eYYu+DsIoqjkhaLc9P2wWXLJ/N41k4sxVJnJuMHOf0Di4k/j+oj3Gif/ITryFVXx
6ImGQHYcp/RLwHBLhQq8PDIqMQ+SVzWI+tmQJwGkhwvzhU12wi+vogpfenjcQVZD
NhyZuSBkNe3OPQAjgSPSIopRhwCrayvBqiF1DIM2YkujSbMIiYtw9yzASU9N0ZU+
V8rmL1oncKFphsfpNUYtjwY9Ww8UjXsuqJFWEAsz/Rtbl9ThHAFMLygvQ3jXirkh
ziSF0IrtPgtdkvo5GdfSxN0USLSioLfrDtkGqY7MK0/3bFiHs7PM6CTdByP4932U
nS17f5/7tv27x+3Dw09+Uc+KAVP2vbx3MiUhtH86J/BPKEabsbxNjaW/K9fR5qP8
l8r9b+NILkeYL7OQI0lmRoL7tyiAdrdeC/GFaE3t3fIDT/0IUf/GQC5Y7SxYsEvo
/sQECXhkSUqZXw==
-----END CERTIFICATE-----
