Certificate:
    Data:
        Version: 1 (0x0)
        Serial Number: 6 (0x6)
        Signature Algorithm: sha256WithRSAEncryption
        Issuer: CN=AGULE
        Validity
            Not Before: Apr 25 11:46:20 2026 GMT
            Not After : Apr 25 11:46:20 2027 GMT
        Subject: CN=mario1
        Subject Public Key Info:
            Public Key Algorithm: rsaEncryption
                Public-Key: (2048 bit)
                Modulus:
                    00:93:5e:71:66:b8:c2:46:79:90:5b:c4:1c:2d:81:
                    a0:cb:83:fe:f0:ce:f8:f1:ed:ee:d2:fc:22:f3:44:
                    c5:94:b5:8e:17:a7:d2:63:8c:db:48:c9:6e:02:3e:
                    b6:70:c4:dd:90:ec:a3:5a:4f:74:0a:6e:88:2a:54:
                    61:ce:1b:8b:8b:b7:87:b4:a3:07:60:bc:71:dc:43:
                    bb:dd:46:b3:f0:76:8b:5f:82:df:0f:13:0f:d2:7b:
                    fe:9a:20:5e:40:d9:ba:13:5e:26:ac:17:6c:f8:10:
                    43:c7:24:fd:10:68:70:34:49:27:78:16:97:d3:4b:
                    a7:65:e5:4f:dc:b5:58:ed:d2:53:a7:0e:c6:fc:b5:
                    58:a2:a5:6f:42:d8:6b:90:e8:68:77:84:5e:20:d2:
                    89:9e:f4:5d:61:35:17:d5:2f:cb:22:ff:f1:0f:ba:
                    59:3b:64:4b:e4:23:61:fc:54:cc:d7:b4:0f:a6:57:
                    3a:f0:bc:6a:31:0e:8f:34:83:be:f5:b7:6d:0e:bc:
                    18:37:ca:1a:70:80:29:4b:03:0d:17:09:4a:5b:9a:
                    99:c7:3e:0f:e2:24:04:4d:78:b3:3a:e3:ce:94:d6:
                    40:15:df:e0:12:94:fe:de:21:a8:fe:6a:d8:d7:08:
                    66:3c:ce:74:02:05:50:30:55:de:c3:d0:d1:54:24:
                    7c:b9
                Exponent: 65537 (0x10001)
    Signature Algorithm: sha256WithRSAEncryption
    Signature Value:
        2d:4e:d6:b1:27:3d:1c:a7:52:26:5e:73:80:c9:95:e0:e0:05:
        ac:55:ab:ac:06:03:ee:8f:41:40:74:f4:39:e8:6f:d1:4e:03:
        ac:42:00:f0:f1:91:96:7d:9c:de:18:06:38:12:46:c1:52:83:
        1f:dd:e7:89:cd:0e:b6:a7:b6:b8:15:1f:07:95:a3:7c:57:03:
        ea:d1:5a:ce:20:b3:b5:fa:3b:67:67:b9:71:2c:85:20:0b:c4:
        c3:d1:ed:18:17:e4:92:32:c0:0c:7c:16:1f:5a:c7:0c:a7:41:
        e8:8e:c1:db:d1:17:05:00:32:c4:26:21:22:9a:16:33:4b:54:
        85:ea:67:95:49:dd:81:b6:9f:e7:2e:e2:8b:20:78:9e:6d:bc:
        e3:86:95:be:0f:e0:23:24:89:ae:8c:7a:9d:87:d7:c8:9a:02:
        f6:c0:8b:9d:f1:0f:92:b1:7a:55:93:c3:38:92:46:14:1a:f7:
        68:86:d7:d4:00:2f:3e:26:56:85:42:20:72:f5:5f:dd:c2:4a:
        67:d0:46:91:a3:05:49:a3:11:e2:69:14:f5:1b:14:74:aa:92:
        4b:4c:39:e8:5f:72:fb:b2:58:88:53:1e:6c:92:84:34:b5:39:
        ad:32:88:e4:ee:da:32:55:19:f4:44:af:eb:96:ab:ed:dc:da:
        b9:09:90:4d:2d:2a:e5:52:1d:56:ca:0c:0b:d4:50:a6:43:56:
        77:cb:8f:28:52:a4:24:77:64:c4:f1:4c:20:d2:f0:06:e9:cb:
        54:ea:36:b2:e1:ab:f1:cf:dd:16:2b:03:1f:f2:2e:2c:cb:c1:
        86:e0:d2:47:fd:ae:ad:51:2c:4b:6e:de:99:93:79:fa:9e:7c:
        ed:c5:8f:cb:91:79:f1:eb:83:cf:df:02:4e:cf:71:4a:3d:c1:
        45:b7:a1:e9:01:3b:69:ae:44:dc:ad:76:31:6d:72:d7:06:f9:
        7d:f6:3f:5d:37:65:89:98:4d:b3:22:ff:3d:4f:17:a6:b8:c0:
        8e:00:61:23:07:98:4d:58:02:e6:3c:69:d7:b5:ee:57:fb:b3:
        62:8c:10:83:2b:6d:90:52:58:64:74:74:30:ba:3b:68:b5:a6:
        f1:9b:3b:c4:5f:8f:d8:3e:ef:17:61:7b:59:86:8c:06:7e:fd:
        10:14:27:c7:cc:8c:dc:f0:70:d5:ed:c4:c8:d8:d3:0a:85:59:
        1d:87:20:89:d5:24:75:97:7f:b2:68:02:a7:09:0f:d0:66:8c:
        04:e1:19:52:db:74:49:02:88:aa:89:b1:4d:45:9e:69:a6:00:
        eb:38:f7:13:63:fd:a4:05:b0:96:15:3f:b5:45:82:69:47:37:
        f1:05:e1:c2:23:d9:65:0b
-----BEGIN CERTIFICATE-----
MIIDlTCCAX0CAQYwDQYJKoZIhvcNAQELBQAwEDEOMAwGA1UEAwwFQUdVTEUwHhcN
MjYwNDI1MTE0NjIwWhcNMjcwNDI1MTE0NjIwWjARMQ8wDQYDVQQDDAZtYXJpbzEw
ggEiMA0GCSqGSIb3DQEBAQUAA4IBDwAwggEKAoIBAQCTXnFmuMJGeZBbxBwtgaDL
g/7wzvjx7e7S/CLzRMWUtY4Xp9JjjNtIyW4CPrZwxN2Q7KNaT3QKbogqVGHOG4uL
t4e0owdgvHHcQ7vdRrPwdotfgt8PEw/Se/6aIF5A2boTXiasF2z4EEPHJP0QaHA0
SSd4FpfTS6dl5U/ctVjt0lOnDsb8tViipW9C2GuQ6Gh3hF4g0ome9F1hNRfVL8si
//EPulk7ZEvkI2H8VMzXtA+mVzrwvGoxDo80g771t20OvBg3yhpwgClLAw0XCUpb
mpnHPg/iJARNeLM6486U1kAV3+ASlP7eIaj+atjXCGY8znQCBVAwVd7D0NFUJHy5
AgMBAAEwDQYJKoZIhvcNAQELBQADggIBAC1O1rEnPRynUiZec4DJleDgBaxVq6wG
A+6PQUB09Dnob9FOA6xCAPDxkZZ9nN4YBjgSRsFSgx/d54nNDrantrgVHweVo3xX
A+rRWs4gs7X6O2dnuXEshSALxMPR7RgX5JIywAx8Fh9axwynQeiOwdvRFwUAMsQm
ISKaFjNLVIXqZ5VJ3YG2n+cu4osgeJ5tvOOGlb4P4CMkia6Mep2H18iaAvbAi53x
D5KxelWTwziSRhQa92iG19QALz4mVoVCIHL1X93CSmfQRpGjBUmjEeJpFPUbFHSq
kktMOehfcvuyWIhTHmyShDS1Oa0yiOTu2jJVGfREr+uWq+3c2rkJkE0tKuVSHVbK
DAvUUKZDVnfLjyhSpCR3ZMTxTCDS8Abpy1TqNrLhq/HP3RYrAx/yLizLwYbg0kf9
rq1RLEtu3pmTefqefO3Fj8uRefHrg8/fAk7PcUo9wUW3oekBO2muRNytdjFtctcG
+X32P103ZYmYTbMi/z1PF6a4wI4AYSMHmE1YAuY8ade17lf7s2KMEIMrbZBSWGR0
dDC6O2i1pvGbO8Rfj9g+7xdhe1mGjAZ+/RAUJ8fMjNzwcNXtxMjY0wqFWR2HIInV
JHWXf7JoAqcJD9BmjAThGVLbdEkCiKqJsU1FnmmmAOs49xNj/aQFsJYVP7VFgmlH
N/EF4cIj2WUL
-----END CERTIFICATE-----
