Certificate:
    Data:
        Version: 1 (0x0)
        Serial Number: 7 (0x7)
        Signature Algorithm: sha256WithRSAEncryption
        Issuer: CN=AGULE
        Validity
            Not Before: Apr 25 11:46:20 2026 GMT
            Not After : Apr 25 11:46:20 2027 GMT
        Subject: CN=mario2
        Subject Public Key Info:
            Public Key Algorithm: rsaEncryption
                Public-Key: (2048 bit)
                Modulus:
                    00:89:60:aa:99:1e:af:81:5f:1f:40:20:43:ca:04:
                    8f:dd:cb:ca:14:a1:b9:ba:cd:89:44:cf:5b:ea:d6:
                    d6:0b:58:80:2e:6f:ef:b2:40:11:14:69:b5:4a:31:
                    d1:ec:7e:6b:d5:fc:c7:cf:31:13:0c:70:f0:8c:9a:
                    5b:a8:a7:2c:1e:38:e1:b3:40:7f:07:f1:07:08:14:
                    4e:0b:96:6f:88:52:0a:85:cd:70:a8:82:ae:b2:f7:
                    3a:e2:06:44:48:a0:4a:2d:34:05:26:b2:89:f6:e6:
                    c8:3e:c1:ff:ef:9d:e3:bb:b3:33:ff:e4:4e:40:9f:
                    1d:d6:a7:2c:16:8c:d3:fa:06:0e:96:cc:4c:bf:9f:
                    0f:da:aa:d3:b2:69:8a:a8:8f:cd:cb:6b:43:8c:8b:
                    1b:98:60:25:d2:e1:9d:ab:5b:7e:5b:96:30:29:8a:
                    2e:d1:22:e6:a4:7b:8f:6d:ef:fa:8e:3d:07:f6:b0:
                    f9:af:47:54:42:7f:76:0e:6d:af:ea:c1:53:8b:90:
                    52:bc:4e:8f:30:f1:02:1a:e0:50:a3:25:ce:7d:a1:
                    75:69:9c:bd:d3:d6:35:a5:85:e4:23:bd:ac:cf:5e:
                    84:0e:d6:1f:85:b5:57:01:73:45:40:a9:4a:b4:61:
                    d1:81:25:33:1e:e2:ad:c5:b8:1a:ee:f5:34:5d:4c:
                    cc:3b
                Exponent: 65537 (0x10001)
    Signature Algorithm: sha256WithRSAEncryption
    Signature Value:
        73:d6:79:42:34:0b:44:5f:93:c7:af:b4:df:40:f0:b2:50:1a:
        b2:18:ff:66:fc:66:c3:79:d8:23:58:e4:06:c3:79:0f:9f:cd:
        8d:a0:63:00:e8:67:bc:8b:bd:bc:7d:04:b6:d0:76:ce:86:14:
        36:4c:17:5a:fa:dc:b6:94:97:15:bf:e5:6d:a6:b9:c8:75:2d:
        0b:9d:fe:e9:0a:91:20:40:ab:3b:d8:9f:59:92:58:c1:c2:e6:
        cc:93:8a:01:24:ff:d0:1d:8d:41:36:76:2f:ca:b9:56:37:6b:
        92:e7:c9:49:c6:fa:bf:69:ad:30:1f:bb:f6:d0:53:00:24:65:
        0b:19:ec:f0:43:4f:db:f2:fa:63:e8:bf:b8:4b:26:84:b1:1a:
        55:3a:b5:6d:18:86:5d:81:b3:62:88:ff:d6:3b:ec:cf:21:c7:
        50:31:da:4a:53:66:6e:4a:ea:df:49:cd:95:83:47:cd:2d:f8:
        49:7d:4a:d5:57:57:06:0e:72:b4:94:8a:4d:a6:bd:44:54:2b:
        0f:b3:b4:b7:a7:24:9b:c2:17:75:5a:ff:08:54:b8:4f:f2:2f:
        d4:ec:ae:52:4a:bb:a9:b7:90:61:09:d2:6d:d7:9e:db:b8:cd:
        8d:32:2d:c7:09:0e:29:46:b3:d8:64:af:43:db:84:57:f5:7c:
        08:74:fa:98:11:d0:ba:6a:a4:8f:fc:4e:98:97:bc:1b:c3:8f:
        0d:65:af:67:fa:72:2d:8f:cc:aa:53:7b:c2:32:39:54:ce:e6:
        af:a1:de:5f:f9:6e:1d:7d:40:84:e9:6e:9e:93:a1:d1:98:50:
        be:f7:a4:24:aa:09:55:98:bb:d7:1f:70:1d:44:d2:86:12:58:
        f3:cc:7d:39:85:a8:cf:da:7d:d2:e5:d7:09:47:2f:ea:2f:d7:
        d0:db:21:6a:82:9a:c2:54:d2:5c:88:08:36:6a:9c:10:a3:c3:
        f2:e3:39:c0:a9:e9:d3:c6:d4:25:fc:8e:b8:47:d2:b0:32:85:
        24:dd:25:ef:a5:dc:46:99:77:cc:d8:ef:aa:a9:43:af:1f:da:
        78:fc:cb:96:66:67:18:2d:8c:15:94:a8:06:ed:3a:23:01:97:
        d9:54:98:18:58:68:37:07:ea:13:c6:9f:9b:7b:71:80:08:5f:
        11:a1:2b:e6:38:5f:bd:47:fd:2b:1c:64:b3:28:36:89:16:57:
        18:11:ce:28:53:53:41:b5:23:59:b0:d8:b5:6d:2a:dd:6f:06:
        0a:66:54:e2:e6:6c:3c:06:6e:72:ad:80:8b:0f:b2:5c:de:70:
        3d:95:65:27:5c:48:09:6d:09:e5:bc:43:b4:c2:22:43:8b:ec:
        34:07:60:8a:e1:07:23:0f
-----BEGIN CERTIFICATE-----
MIIDlTCCAX0CAQcwDQYJKoZIhvcNAQELBQAwEDEOMAwGA1UEAwwFQUdVTEUwHhcN
MjYwNDI1MTE0NjIwWhcNMjcwNDI1MTE0NjIwWjARMQ8wDQYDVQQDDAZtYXJpbzIw
ggEiMA0GCSqGSIb3DQEBAQUAA4IBDwAwggEKAoIBAQCJYKqZHq+BXx9AIEPKBI/d
y8oUobm6zYlEz1vq1tYLWIAub++yQBEUabVKMdHsfmvV/MfPMRMMcPCMmluopywe
OOGzQH8H8QcIFE4Llm+IUgqFzXCogq6y9zriBkRIoEotNAUmson25sg+wf/vneO7
szP/5E5Anx3WpywWjNP6Bg6WzEy/nw/aqtOyaYqoj83La0OMixuYYCXS4Z2rW35b
ljApii7RIuake49t7/qOPQf2sPmvR1RCf3YOba/qwVOLkFK8To8w8QIa4FCjJc59
oXVpnL3T1jWlheQjvazPXoQO1h+FtVcBc0VAqUq0YdGBJTMe4q3FuBru9TRdTMw7
AgMBAAEwDQYJKoZIhvcNAQELBQADggIBAHPWeUI0C0Rfk8evtN9A8LJQGrIY/2b8
ZsN52CNY5AbDeQ+fzY2gYwDoZ7yLvbx9BLbQds6GFDZMF1r63LaUlxW/5W2much1
LQud/ukKkSBAqzvYn1mSWMHC5syTigEk/9AdjUE2di/KuVY3a5LnyUnG+r9prTAf
u/bQUwAkZQsZ7PBDT9vy+mPov7hLJoSxGlU6tW0Yhl2Bs2KI/9Y77M8hx1Ax2kpT
Zm5K6t9JzZWDR80t+El9StVXVwYOcrSUik2mvURUKw+ztLenJJvCF3Va/whUuE/y
L9TsrlJKu6m3kGEJ0m3Xntu4zY0yLccJDilGs9hkr0PbhFf1fAh0+pgR0LpqpI/8
TpiXvBvDjw1lr2f6ci2PzKpTe8IyOVTO5q+h3l/5bh19QITpbp6TodGYUL73pCSq
CVWYu9cfcB1E0oYSWPPMfTmFqM/afdLl1wlHL+ov19DbIWqCmsJU0lyICDZqnBCj
w/LjOcCp6dPG1CX8jrhH0rAyhSTdJe+l3EaZd8zY76qpQ68f2nj8y5ZmZxgtjBWU
qAbtOiMBl9lUmBhYaDcH6hPGn5t7cYAIXxGhK+Y4X71H/SscZLMoNokWVxgRzihT
U0G1I1mw2LVtKt1vBgpmVOLmbDwGbnKtgIsPslzecD2VZSdcSAltCeW8Q7TCIkOL
7DQHYIrhByMP
-----END CERTIFICATE-----
