Certificate:
    Data:
        Version: 1 (0x0)
        Serial Number: 7 (0x7)
        Signature Algorithm: sha256WithRSAEncryption
        Issuer: CN=AGULE
        Validity
            Not Before: Jun  5 17:59:15 2026 GMT
            Not After : Jun  5 17:59:15 2027 GMT
        Subject: CN=prueba3
        Subject Public Key Info:
            Public Key Algorithm: rsaEncryption
                Public-Key: (2048 bit)
                Modulus:
                    00:cf:91:77:4a:6b:61:c0:ee:b3:b1:52:6c:bb:b7:
                    c4:7c:c3:21:15:29:48:0b:28:01:82:fe:2a:dd:3b:
                    7c:17:ad:3b:af:70:cc:61:b1:ff:58:e1:79:f3:21:
                    bd:7e:eb:a1:ed:49:36:43:11:5e:df:16:1e:e0:4c:
                    b0:ae:03:f2:e2:b0:ea:3c:6a:30:2c:04:0a:59:90:
                    52:b7:92:84:9e:28:b5:9f:79:9f:ce:d5:4a:28:37:
                    b7:6c:fb:ce:e1:88:0f:8d:df:10:4f:d5:c1:18:5a:
                    8f:20:02:e7:bc:e7:2a:83:4a:6a:31:cc:8a:00:d2:
                    5b:b1:43:bc:33:3e:c4:23:c8:8f:62:35:24:9d:ba:
                    92:62:78:00:16:bd:e4:77:6d:cd:46:38:eb:45:25:
                    6b:18:69:e4:ae:ed:eb:b2:4e:1f:ca:c9:e0:bb:e2:
                    5b:4f:95:42:10:d2:ae:10:5f:53:fa:49:ba:dd:55:
                    57:4e:eb:77:2d:d7:6a:df:69:67:b6:a2:f3:14:f7:
                    7d:f3:3f:66:9e:de:85:e7:10:05:c0:27:80:1e:54:
                    16:96:be:39:f8:22:69:3a:69:c9:5a:00:41:f3:0a:
                    dd:58:35:54:3e:12:f1:db:61:ce:36:d6:28:e8:63:
                    b2:d8:a3:ef:d4:b9:08:06:53:54:33:63:28:b6:83:
                    75:ed
                Exponent: 65537 (0x10001)
    Signature Algorithm: sha256WithRSAEncryption
    Signature Value:
        7c:04:62:b2:34:7a:a0:a0:46:d5:d7:dd:45:ef:cc:29:f7:35:
        ec:61:6a:b6:82:50:ab:d4:47:4e:b3:da:0c:d9:fe:2e:5c:89:
        ca:28:ac:63:f8:e0:61:99:1d:07:76:3b:af:0c:f5:24:de:2d:
        71:9c:a4:b8:2d:a5:57:99:60:76:c7:69:de:96:b5:e8:0e:86:
        2d:c7:91:14:81:35:22:1a:2f:5c:cf:08:51:28:27:81:ab:54:
        5b:df:c6:e7:71:7f:a5:4d:12:49:1d:dc:3e:27:f2:96:01:c3:
        72:b8:47:05:8b:2f:43:25:67:79:fe:0a:6b:34:1d:33:ee:49:
        1d:ae:cd:2f:11:0d:4c:6f:9f:ba:dc:4a:25:37:f2:d3:fc:f4:
        44:a5:27:b3:76:8e:b0:ae:17:66:15:7a:70:a5:37:f3:82:dd:
        1e:18:83:08:ac:72:3b:88:74:57:dc:7e:4b:df:37:4a:41:ef:
        1b:47:c4:30:3b:84:48:5f:dd:7f:76:fc:f1:3f:09:b9:36:90:
        bd:9f:93:cb:b2:21:12:a7:8d:08:32:c0:d6:69:61:f9:35:7e:
        9b:f1:d2:10:c2:85:c7:16:99:41:20:63:d9:d9:62:a3:ea:c0:
        ad:20:45:79:fc:aa:14:cc:b4:20:d3:df:eb:db:fb:0e:00:4b:
        d0:85:44:0f:cf:46:e1:55:d1:42:31:9b:6e:30:e6:15:8b:32:
        d8:79:56:14:89:90:1c:45:b5:ba:7f:87:e7:d4:24:03:15:83:
        b7:26:6c:28:48:ef:cf:c5:bd:47:b0:fe:63:91:b8:f4:58:a8:
        8d:c3:ee:b3:66:5d:ae:27:15:09:ad:e4:b5:e8:e1:fe:ef:32:
        fd:f0:0a:c7:24:f2:4e:53:11:c6:02:e9:89:1c:dd:50:67:e7:
        04:eb:17:2a:4b:bc:e9:a6:2a:56:e1:39:40:8b:fc:57:cb:b1:
        f1:1b:98:c1:be:53:14:dd:4f:39:af:3d:20:70:8a:4d:93:21:
        ef:9c:5f:28:67:a1:60:10:5b:42:64:0c:fd:c3:e5:6b:fc:d9:
        76:26:59:8d:dc:21:1b:87:9a:67:0f:07:78:aa:2e:94:26:88:
        a1:01:4f:f7:96:8e:0b:61:26:b8:e1:05:1d:30:ee:ee:1e:44:
        3a:73:96:17:de:ba:11:fa:8d:c2:7f:a4:99:73:db:ca:14:c2:
        dd:62:1e:c3:89:a4:16:fa:35:fe:3e:26:28:9d:9d:db:3f:ac:
        1a:fb:c5:43:ff:63:4c:3e:a7:fa:d2:2b:16:99:11:4b:3b:6e:
        19:38:9e:43:28:a8:85:1d:a3:a8:77:bd:21:16:6f:a3:ae:d6:
        6f:81:cd:80:44:4c:f7:a8
-----BEGIN CERTIFICATE-----
MIIDljCCAX4CAQcwDQYJKoZIhvcNAQELBQAwEDEOMAwGA1UEAwwFQUdVTEUwHhcN
MjYwNjA1MTc1OTE1WhcNMjcwNjA1MTc1OTE1WjASMRAwDgYDVQQDDAdwcnVlYmEz
MIIBIjANBgkqhkiG9w0BAQEFAAOCAQ8AMIIBCgKCAQEAz5F3SmthwO6zsVJsu7fE
fMMhFSlICygBgv4q3Tt8F607r3DMYbH/WOF58yG9fuuh7Uk2QxFe3xYe4EywrgPy
4rDqPGowLAQKWZBSt5KEnii1n3mfztVKKDe3bPvO4YgPjd8QT9XBGFqPIALnvOcq
g0pqMcyKANJbsUO8Mz7EI8iPYjUknbqSYngAFr3kd23NRjjrRSVrGGnkru3rsk4f
ysngu+JbT5VCENKuEF9T+km63VVXTut3Lddq32lntqLzFPd98z9mnt6F5xAFwCeA
HlQWlr45+CJpOmnJWgBB8wrdWDVUPhLx22HONtYo6GOy2KPv1LkIBlNUM2MotoN1
7QIDAQABMA0GCSqGSIb3DQEBCwUAA4ICAQB8BGKyNHqgoEbV191F78wp9zXsYWq2
glCr1EdOs9oM2f4uXInKKKxj+OBhmR0HdjuvDPUk3i1xnKS4LaVXmWB2x2nelrXo
DoYtx5EUgTUiGi9czwhRKCeBq1Rb38bncX+lTRJJHdw+J/KWAcNyuEcFiy9DJWd5
/gprNB0z7kkdrs0vEQ1Mb5+63EolN/LT/PREpSezdo6wrhdmFXpwpTfzgt0eGIMI
rHI7iHRX3H5L3zdKQe8bR8QwO4RIX91/dvzxPwm5NpC9n5PLsiESp40IMsDWaWH5
NX6b8dIQwoXHFplBIGPZ2WKj6sCtIEV5/KoUzLQg09/r2/sOAEvQhUQPz0bhVdFC
MZtuMOYVizLYeVYUiZAcRbW6f4fn1CQDFYO3JmwoSO/Pxb1HsP5jkbj0WKiNw+6z
Zl2uJxUJreS16OH+7zL98ArHJPJOUxHGAumJHN1QZ+cE6xcqS7zppipW4TlAi/xX
y7HxG5jBvlMU3U85rz0gcIpNkyHvnF8oZ6FgEFtCZAz9w+Vr/Nl2JlmN3CEbh5pn
Dwd4qi6UJoihAU/3lo4LYSa44QUdMO7uHkQ6c5YX3roR+o3Cf6SZc9vKFMLdYh7D
iaQW+jX+PiYonZ3bP6wa+8VD/2NMPqf60isWmRFLO24ZOJ5DKKiFHaOod70hFm+j
rtZvgc2AREz3qA==
-----END CERTIFICATE-----
