Certificate:
    Data:
        Version: 1 (0x0)
        Serial Number: 8 (0x8)
        Signature Algorithm: sha256WithRSAEncryption
        Issuer: CN=AGULE
        Validity
            Not Before: Jun  5 19:09:06 2026 GMT
            Not After : Jun  5 19:09:06 2027 GMT
        Subject: CN=prueba1
        Subject Public Key Info:
            Public Key Algorithm: rsaEncryption
                Public-Key: (2048 bit)
                Modulus:
                    00:af:45:67:25:76:2f:15:a2:64:0e:18:30:4e:0f:
                    96:7f:a0:22:e4:b7:fd:73:a2:5c:01:71:91:a2:dd:
                    f9:d2:3b:38:4f:c8:32:04:3d:a8:4e:aa:d6:76:9d:
                    79:73:6f:45:8f:9c:1c:21:65:8f:f1:64:1f:1f:a9:
                    fc:2d:f4:e8:e9:84:da:ca:cb:38:b2:56:e3:9a:f3:
                    91:a9:51:93:f3:cb:f4:1c:dc:d2:b8:ff:fb:07:4d:
                    5d:ba:b9:bc:fb:97:1e:f1:e6:b1:35:e7:0c:ce:65:
                    53:a3:e0:c5:22:81:7c:dd:37:bb:63:63:8d:49:03:
                    dd:0a:01:43:5c:5b:31:93:c0:da:d7:0c:72:0c:49:
                    56:8b:64:89:98:16:4b:c6:a1:cb:59:79:6a:f0:e9:
                    f5:08:25:54:e4:f1:f5:7d:e9:13:42:1c:b7:0d:34:
                    f6:aa:3b:71:b1:e9:3e:43:c3:9c:e5:76:45:fb:81:
                    88:71:3b:05:5d:ed:49:4e:00:4b:0e:bf:75:02:53:
                    16:7a:ce:2d:64:f1:d7:0e:19:c7:2a:bc:f7:bb:56:
                    76:58:29:16:7d:e2:60:5f:6d:cb:86:62:56:58:ec:
                    a7:94:4b:71:f3:20:79:17:ec:26:a6:da:13:0f:c1:
                    c3:be:14:56:0f:5d:7d:28:dc:db:45:c0:d3:a9:bb:
                    10:cf
                Exponent: 65537 (0x10001)
    Signature Algorithm: sha256WithRSAEncryption
    Signature Value:
        84:65:38:a0:30:ee:d3:1b:42:75:2c:a4:ed:ef:7c:cc:41:33:
        b2:62:ed:8b:e9:e2:5c:c2:a4:66:45:dc:9a:31:da:75:ac:4f:
        f9:93:cf:7e:a0:35:4d:07:39:72:5b:6a:b7:98:4b:b2:42:84:
        e8:71:c8:7f:fb:31:4b:ce:e8:74:db:0f:79:bb:96:57:13:f7:
        f3:aa:b5:53:83:ee:86:ae:9c:b4:4e:7d:4c:fa:b0:11:a1:b4:
        06:24:fd:2f:3a:e8:a9:87:9c:82:80:a8:3a:d5:6c:9a:ca:a1:
        c1:71:77:c2:71:8e:96:7d:2c:19:ba:ce:52:9a:7b:63:3f:79:
        b7:7c:18:64:0e:36:a3:3a:87:95:0d:d2:08:1e:98:6a:b1:4a:
        3b:50:5a:0f:fa:d0:3c:4b:5d:b7:01:90:7e:bb:a5:19:0a:95:
        17:da:94:e1:7f:2e:f1:7d:eb:3c:a0:9d:5a:65:05:b4:9b:74:
        d8:de:4f:85:2b:43:33:3b:36:17:e8:54:e9:7a:c1:1e:dc:d5:
        4a:80:4d:ed:b5:22:d1:19:cc:c5:f5:69:fd:ac:e1:b8:df:30:
        11:ba:6f:07:fb:8c:eb:31:16:58:e6:6d:5d:78:70:95:ee:07:
        05:01:d7:9f:e2:aa:52:bd:a4:c0:73:7b:0c:3d:20:64:de:20:
        39:73:0a:19:8d:17:e4:fc:0e:7f:db:f5:a7:1a:da:d8:68:50:
        4b:44:50:17:41:06:a3:99:a2:07:d1:39:61:61:f5:16:3c:0e:
        95:05:e0:d8:65:0e:4f:fe:2b:5d:3d:49:e3:f7:d2:22:d4:20:
        95:3a:13:0a:bb:27:5b:52:84:68:c0:63:b5:58:58:56:28:8b:
        e7:92:c6:4a:94:1e:dc:a4:8e:d5:36:56:26:9d:04:bf:13:d5:
        47:73:33:17:8c:3a:6d:3a:4a:cd:8c:d0:ef:bb:d6:cc:a9:c4:
        bd:b3:46:eb:cd:69:ea:27:8d:7b:12:6c:94:48:1b:02:d4:cf:
        d7:1c:b6:5a:30:6f:d6:1c:a1:bb:04:0b:cb:d5:ec:07:f2:6a:
        04:a6:b1:89:fe:26:8c:9f:37:c6:e5:db:b8:eb:1a:fe:ae:a1:
        85:99:df:6b:d8:f8:13:eb:4c:0c:ef:9c:da:bc:61:14:06:9e:
        20:c1:1c:72:a1:02:19:1b:20:44:3b:f0:16:b8:0a:f6:11:c1:
        6b:38:df:c6:bf:88:9f:d4:89:6d:b7:f3:a2:68:30:e8:b8:c3:
        28:37:ea:7e:23:a9:54:b7:37:d2:ca:a8:78:6c:44:3a:97:d1:
        52:1e:38:7c:06:d8:bf:5b:41:00:db:a5:63:b5:d6:7f:4d:c0:
        3d:58:f0:3c:58:f8:3f:c0
-----BEGIN CERTIFICATE-----
MIIDljCCAX4CAQgwDQYJKoZIhvcNAQELBQAwEDEOMAwGA1UEAwwFQUdVTEUwHhcN
MjYwNjA1MTkwOTA2WhcNMjcwNjA1MTkwOTA2WjASMRAwDgYDVQQDDAdwcnVlYmEx
MIIBIjANBgkqhkiG9w0BAQEFAAOCAQ8AMIIBCgKCAQEAr0VnJXYvFaJkDhgwTg+W
f6Ai5Lf9c6JcAXGRot350js4T8gyBD2oTqrWdp15c29Fj5wcIWWP8WQfH6n8LfTo
6YTayss4slbjmvORqVGT88v0HNzSuP/7B01durm8+5ce8eaxNecMzmVTo+DFIoF8
3Te7Y2ONSQPdCgFDXFsxk8Da1wxyDElWi2SJmBZLxqHLWXlq8On1CCVU5PH1fekT
Qhy3DTT2qjtxsek+Q8Oc5XZF+4GIcTsFXe1JTgBLDr91AlMWes4tZPHXDhnHKrz3
u1Z2WCkWfeJgX23LhmJWWOynlEtx8yB5F+wmptoTD8HDvhRWD119KNzbRcDTqbsQ
zwIDAQABMA0GCSqGSIb3DQEBCwUAA4ICAQCEZTigMO7TG0J1LKTt73zMQTOyYu2L
6eJcwqRmRdyaMdp1rE/5k89+oDVNBzlyW2q3mEuyQoTocch/+zFLzuh02w95u5ZX
E/fzqrVTg+6Grpy0Tn1M+rARobQGJP0vOuiph5yCgKg61WyayqHBcXfCcY6WfSwZ
us5SmntjP3m3fBhkDjajOoeVDdIIHphqsUo7UFoP+tA8S123AZB+u6UZCpUX2pTh
fy7xfes8oJ1aZQW0m3TY3k+FK0MzOzYX6FTpesEe3NVKgE3ttSLRGczF9Wn9rOG4
3zARum8H+4zrMRZY5m1deHCV7gcFAdef4qpSvaTAc3sMPSBk3iA5cwoZjRfk/A5/
2/WnGtrYaFBLRFAXQQajmaIH0TlhYfUWPA6VBeDYZQ5P/itdPUnj99Ii1CCVOhMK
uydbUoRowGO1WFhWKIvnksZKlB7cpI7VNlYmnQS/E9VHczMXjDptOkrNjNDvu9bM
qcS9s0brzWnqJ417EmyUSBsC1M/XHLZaMG/WHKG7BAvL1ewH8moEprGJ/iaMnzfG
5du46xr+rqGFmd9r2PgT60wM75zavGEUBp4gwRxyoQIZGyBEO/AWuAr2EcFrON/G
v4if1Iltt/OiaDDouMMoN+p+I6lUtzfSyqh4bEQ6l9FSHjh8Bti/W0EA26VjtdZ/
TcA9WPA8WPg/wA==
-----END CERTIFICATE-----
