Certificate:
    Data:
        Version: 1 (0x0)
        Serial Number: 9 (0x9)
        Signature Algorithm: sha256WithRSAEncryption
        Issuer: CN=AGULE
        Validity
            Not Before: Jun 26 10:25:35 2026 GMT
            Not After : Jun 26 10:25:35 2027 GMT
        Subject: CN=mario
        Subject Public Key Info:
            Public Key Algorithm: rsaEncryption
                Public-Key: (2048 bit)
                Modulus:
                    00:d3:68:7e:c2:5d:c0:a6:20:9d:34:77:4f:54:1e:
                    5b:a6:19:dd:ba:ab:cd:f9:ea:2b:3e:72:ae:0a:d4:
                    9d:bf:0a:66:d3:12:9f:c5:03:6c:6b:57:ea:12:df:
                    c8:74:6a:f9:43:d7:c1:0c:81:9e:a8:54:ed:76:7f:
                    97:c1:e9:2b:2c:77:af:57:e7:57:5b:a5:39:96:53:
                    cc:fa:1e:98:3e:af:f4:e6:a6:e2:4f:f9:ae:a3:23:
                    8b:e1:03:f9:b4:b2:60:bb:61:1e:22:e0:13:58:02:
                    51:26:b2:b1:1c:d7:8e:64:e0:22:87:02:cf:6e:6b:
                    be:87:9b:b1:d1:43:87:61:bc:bf:f7:e8:c1:18:06:
                    03:0c:dc:76:8d:1b:78:1e:32:8c:17:96:70:d3:16:
                    d2:23:b9:f8:0c:53:5f:62:b5:51:61:8c:f6:d2:f6:
                    8e:3c:06:3b:a8:76:04:8f:70:41:e3:4d:0d:49:de:
                    73:7c:5a:32:a5:4d:a9:97:18:c5:24:ea:5f:7b:70:
                    02:94:09:d8:04:5f:ec:61:4c:a0:5d:81:48:52:4c:
                    b1:56:be:87:ae:20:d4:22:a9:c7:dc:43:38:67:cd:
                    d5:cc:8c:49:45:e8:d6:7f:35:27:2a:f9:d8:d9:84:
                    84:de:55:23:88:95:cb:26:ce:f0:6d:a3:09:be:b0:
                    f8:35
                Exponent: 65537 (0x10001)
    Signature Algorithm: sha256WithRSAEncryption
    Signature Value:
        8f:36:d0:2d:67:8c:8d:9f:7d:59:1b:cc:5b:04:2c:62:7d:53:
        23:34:b4:11:a3:e6:fc:96:1e:38:d1:c6:ec:dd:6d:9c:75:31:
        b5:4c:24:bd:f4:7d:a1:cd:9f:2a:f7:a3:c8:7f:79:62:ef:ac:
        41:12:5a:13:4f:51:d5:3e:c0:f7:41:a7:83:81:69:c2:8c:ed:
        cc:ab:fd:00:96:e4:02:9e:44:4e:02:4f:1d:dc:5b:5f:21:82:
        1c:22:c7:99:90:2d:c1:06:c5:72:36:22:f1:c6:67:ed:a1:c0:
        a0:3f:9d:38:d8:94:70:60:bf:ee:0d:21:a7:4b:3a:33:da:45:
        c4:aa:78:d3:ec:c8:c5:b8:aa:75:d0:57:77:6f:32:72:b3:a6:
        9c:6d:20:c8:9f:4f:cb:c6:dd:ea:29:53:13:f8:cb:62:cc:8f:
        49:fb:e5:63:96:09:d6:7f:fd:7a:ff:7f:da:cb:ff:72:e9:66:
        63:b9:25:77:fe:9b:34:d4:34:b2:6e:48:85:d2:cb:de:f2:aa:
        eb:09:ee:20:af:89:f3:30:e6:1c:3c:09:66:b1:56:37:a4:fd:
        dc:12:30:25:33:21:2e:cb:0d:2f:0c:1a:d2:69:88:64:bb:80:
        c0:5d:f0:a1:30:1b:51:a5:35:a4:4b:27:28:31:68:53:b2:48:
        28:de:6f:2b:51:71:c7:94:15:b7:55:2d:01:8d:de:1f:cf:85:
        4b:5f:67:4a:f9:8c:c5:42:2c:09:61:3e:eb:85:77:63:17:cc:
        46:aa:d7:e4:27:3d:93:85:17:93:d0:56:19:6a:e3:35:41:fd:
        61:73:b3:74:b2:a6:e1:bf:e0:4c:8a:5e:5b:3a:fa:57:0b:f8:
        f4:e6:40:31:f4:a6:67:59:05:0a:65:bd:95:6d:4d:17:84:44:
        ff:4e:0e:30:c9:34:f5:b0:8b:34:66:6a:df:20:00:6b:76:21:
        d0:48:fd:93:31:3e:fc:5a:d7:87:02:9d:fa:46:60:3b:73:5a:
        ec:f6:1a:60:8a:73:db:e0:0d:d9:68:eb:57:a2:23:dd:de:6e:
        38:0e:18:f4:34:ae:e4:7a:1d:a5:4b:36:f6:25:8d:3d:50:13:
        26:b2:f5:2d:35:31:21:18:b6:c0:2c:4b:e2:dd:78:34:2e:0c:
        43:e1:eb:f9:6e:8a:26:8f:41:81:27:16:43:8a:2e:b5:7f:c1:
        7c:04:04:74:fe:49:5b:60:10:01:3c:54:fa:44:41:1a:6c:d4:
        aa:40:08:71:22:99:96:13:97:3d:76:dc:e2:04:72:7b:29:27:
        d1:bc:1e:b9:a8:b4:bc:10:da:20:88:7c:a3:5e:8f:15:38:a3:
        55:98:33:3a:45:75:67:ab
-----BEGIN CERTIFICATE-----
MIIDlDCCAXwCAQkwDQYJKoZIhvcNAQELBQAwEDEOMAwGA1UEAwwFQUdVTEUwHhcN
MjYwNjI2MTAyNTM1WhcNMjcwNjI2MTAyNTM1WjAQMQ4wDAYDVQQDDAVtYXJpbzCC
ASIwDQYJKoZIhvcNAQEBBQADggEPADCCAQoCggEBANNofsJdwKYgnTR3T1QeW6YZ
3bqrzfnqKz5yrgrUnb8KZtMSn8UDbGtX6hLfyHRq+UPXwQyBnqhU7XZ/l8HpKyx3
r1fnV1ulOZZTzPoemD6v9Oam4k/5rqMji+ED+bSyYLthHiLgE1gCUSaysRzXjmTg
IocCz25rvoebsdFDh2G8v/fowRgGAwzcdo0beB4yjBeWcNMW0iO5+AxTX2K1UWGM
9tL2jjwGO6h2BI9wQeNNDUnec3xaMqVNqZcYxSTqX3twApQJ2ARf7GFMoF2BSFJM
sVa+h64g1CKpx9xDOGfN1cyMSUXo1n81Jyr52NmEhN5VI4iVyybO8G2jCb6w+DUC
AwEAATANBgkqhkiG9w0BAQsFAAOCAgEAjzbQLWeMjZ99WRvMWwQsYn1TIzS0EaPm
/JYeONHG7N1tnHUxtUwkvfR9oc2fKvejyH95Yu+sQRJaE09R1T7A90Gng4Fpwozt
zKv9AJbkAp5ETgJPHdxbXyGCHCLHmZAtwQbFcjYi8cZn7aHAoD+dONiUcGC/7g0h
p0s6M9pFxKp40+zIxbiqddBXd28ycrOmnG0gyJ9Py8bd6ilTE/jLYsyPSfvlY5YJ
1n/9ev9/2sv/culmY7kld/6bNNQ0sm5IhdLL3vKq6wnuIK+J8zDmHDwJZrFWN6T9
3BIwJTMhLssNLwwa0mmIZLuAwF3woTAbUaU1pEsnKDFoU7JIKN5vK1Fxx5QVt1Ut
AY3eH8+FS19nSvmMxUIsCWE+64V3YxfMRqrX5Cc9k4UXk9BWGWrjNUH9YXOzdLKm
4b/gTIpeWzr6Vwv49OZAMfSmZ1kFCmW9lW1NF4RE/04OMMk09bCLNGZq3yAAa3Yh
0Ej9kzE+/FrXhwKd+kZgO3Na7PYaYIpz2+AN2WjrV6Ij3d5uOA4Y9DSu5HodpUs2
9iWNPVATJrL1LTUxIRi2wCxL4t14NC4MQ+Hr+W6KJo9BgScWQ4outX/BfAQEdP5J
W2AQATxU+kRBGmzUqkAIcSKZlhOXPXbc4gRyeykn0bweuai0vBDaIIh8o16PFTij
VZgzOkV1Z6s=
-----END CERTIFICATE-----
