Certificate:
    Data:
        Version: 1 (0x0)
        Serial Number: 10 (0xa)
        Signature Algorithm: sha256WithRSAEncryption
        Issuer: CN=AGULE
        Validity
            Not Before: Jun 26 10:29:01 2026 GMT
            Not After : Jun 26 10:29:01 2027 GMT
        Subject: CN=juan
        Subject Public Key Info:
            Public Key Algorithm: rsaEncryption
                Public-Key: (2048 bit)
                Modulus:
                    00:92:c9:33:29:a6:a1:61:01:72:43:13:cf:8e:07:
                    31:9f:cb:2f:45:e8:61:60:7a:35:70:30:c8:7f:d9:
                    b1:8a:00:d1:ea:0b:67:09:dc:61:92:35:e7:d3:9b:
                    56:5b:27:38:12:e9:30:a0:ae:1c:80:ab:4b:25:cd:
                    e2:37:ca:ca:f9:b7:df:e8:f9:85:d2:4b:44:d2:3e:
                    fc:c6:97:cb:2a:74:42:29:e9:eb:73:7f:77:f1:db:
                    b4:dd:ba:f2:cf:2e:2d:50:19:3f:71:76:95:52:f1:
                    b9:f2:fc:0f:bb:3c:2d:d2:e3:3b:1f:a1:bc:af:c6:
                    86:e5:37:69:47:7b:0e:d0:a8:48:c7:d3:36:d7:6b:
                    39:95:e1:2e:9a:f4:65:bd:23:b7:58:6d:05:cb:5d:
                    7e:f2:94:8e:77:78:b1:d9:5a:91:78:e4:95:8d:f8:
                    03:64:9a:dc:c8:fd:a4:49:3f:84:76:f2:19:b2:79:
                    5a:0b:79:59:eb:04:66:e5:f1:eb:23:b1:97:fc:11:
                    e4:d8:2d:ad:78:3f:6a:bd:e7:85:c4:b1:e2:d1:b2:
                    18:e9:7b:de:fd:2f:70:be:ca:a9:40:b1:ef:cb:3d:
                    eb:50:59:60:4e:4b:74:9c:f3:01:cb:a0:72:cf:be:
                    c6:79:c5:d6:3c:23:cf:db:68:4a:89:25:ab:61:7b:
                    72:bf
                Exponent: 65537 (0x10001)
    Signature Algorithm: sha256WithRSAEncryption
    Signature Value:
        37:b9:3f:75:fa:5a:1a:c5:33:ad:4d:e7:8c:cf:d4:43:5a:13:
        6c:a7:b8:84:3f:c2:4a:8b:d9:eb:2b:72:f4:50:47:9b:70:ce:
        7c:2b:18:16:20:b9:53:20:d7:b3:b5:76:31:bd:85:b5:dc:80:
        e6:2a:34:8d:ad:79:12:4b:67:3c:cb:c6:4a:b4:1a:17:ef:6a:
        95:93:b2:d1:91:72:e6:cd:39:2b:7a:69:db:9c:3b:28:87:8b:
        e3:e1:e0:89:3a:d4:01:19:08:3e:b1:20:f2:f8:8d:12:93:e4:
        1e:fc:3f:3d:ac:47:9b:50:47:62:bd:ef:d1:7b:84:2d:aa:4e:
        35:26:00:16:9e:ed:05:b9:d2:9d:16:2b:d2:cd:23:64:6f:5e:
        0d:88:44:49:2b:bf:17:e3:7b:4d:78:e7:65:98:a0:17:2a:1c:
        74:7a:33:96:ee:d7:40:38:39:be:44:11:86:9b:4b:f8:9b:21:
        36:9b:28:44:38:4e:9f:c2:fd:39:ae:0e:21:2f:69:2d:79:21:
        17:c3:f2:ac:b3:c9:e9:b0:3b:f3:35:89:30:0b:0a:5a:10:66:
        0a:f1:cf:3b:63:14:e2:09:4d:59:db:79:3a:9c:e4:ae:89:e3:
        0a:23:cd:6a:40:37:e9:4b:54:fd:b2:d4:7e:b1:81:a4:99:f2:
        1c:8b:85:93:a6:a3:3b:c6:81:f1:3f:16:f2:51:7d:0e:d4:3a:
        73:f9:b6:df:a6:fe:46:c9:76:58:8c:7f:ce:17:fc:29:ed:2e:
        46:23:ac:48:e4:b0:f2:55:54:62:a9:ef:ac:26:d0:4f:3a:cd:
        d0:7e:07:92:7a:3c:7d:24:de:37:5d:13:77:29:ca:27:89:73:
        15:73:e7:ce:5d:3a:3c:5a:e5:79:1a:c1:c5:dd:4b:8b:09:33:
        24:28:a9:67:4f:90:b6:9c:54:df:3e:63:33:13:54:07:1d:98:
        c8:87:88:8b:c3:a8:56:b4:f5:79:c3:10:ba:83:b8:da:66:8f:
        a9:d9:bd:58:ad:7c:fa:05:66:30:92:96:df:f9:8a:71:36:31:
        75:7b:95:8f:48:08:b4:9f:79:4b:40:c7:fc:82:50:a5:06:2c:
        77:d8:47:a1:18:de:35:4a:03:5c:0a:b9:43:a3:46:05:93:76:
        34:25:54:ee:51:ac:bf:b0:d4:96:23:0f:76:14:46:1e:5e:2e:
        9d:ce:12:51:31:df:86:13:73:b0:8a:dc:7f:40:cb:97:c1:ee:
        f5:67:a6:1c:bd:d0:b0:4c:75:d2:c6:78:db:08:0d:76:c5:20:
        2c:43:28:ea:85:98:e0:e7:60:a8:1c:7c:9a:27:a6:13:78:e1:
        dd:9f:04:23:03:f5:14:ca
-----BEGIN CERTIFICATE-----
MIIDkzCCAXsCAQowDQYJKoZIhvcNAQELBQAwEDEOMAwGA1UEAwwFQUdVTEUwHhcN
MjYwNjI2MTAyOTAxWhcNMjcwNjI2MTAyOTAxWjAPMQ0wCwYDVQQDDARqdWFuMIIB
IjANBgkqhkiG9w0BAQEFAAOCAQ8AMIIBCgKCAQEAkskzKaahYQFyQxPPjgcxn8sv
RehhYHo1cDDIf9mxigDR6gtnCdxhkjXn05tWWyc4EukwoK4cgKtLJc3iN8rK+bff
6PmF0ktE0j78xpfLKnRCKenrc3938du03bryzy4tUBk/cXaVUvG58vwPuzwt0uM7
H6G8r8aG5TdpR3sO0KhIx9M212s5leEumvRlvSO3WG0Fy11+8pSOd3ix2VqReOSV
jfgDZJrcyP2kST+EdvIZsnlaC3lZ6wRm5fHrI7GX/BHk2C2teD9qveeFxLHi0bIY
6Xve/S9wvsqpQLHvyz3rUFlgTkt0nPMBy6Byz77GecXWPCPP22hKiSWrYXtyvwID
AQABMA0GCSqGSIb3DQEBCwUAA4ICAQA3uT91+loaxTOtTeeMz9RDWhNsp7iEP8JK
i9nrK3L0UEebcM58KxgWILlTINeztXYxvYW13IDmKjSNrXkSS2c8y8ZKtBoX72qV
k7LRkXLmzTkremnbnDsoh4vj4eCJOtQBGQg+sSDy+I0Sk+Qe/D89rEebUEdive/R
e4Qtqk41JgAWnu0FudKdFivSzSNkb14NiERJK78X43tNeOdlmKAXKhx0ejOW7tdA
ODm+RBGGm0v4myE2myhEOE6fwv05rg4hL2kteSEXw/Kss8npsDvzNYkwCwpaEGYK
8c87YxTiCU1Z23k6nOSuieMKI81qQDfpS1T9stR+sYGkmfIci4WTpqM7xoHxPxby
UX0O1Dpz+bbfpv5GyXZYjH/OF/wp7S5GI6xI5LDyVVRiqe+sJtBPOs3QfgeSejx9
JN43XRN3KconiXMVc+fOXTo8WuV5GsHF3UuLCTMkKKlnT5C2nFTfPmMzE1QHHZjI
h4iLw6hWtPV5wxC6g7jaZo+p2b1YrXz6BWYwkpbf+YpxNjF1e5WPSAi0n3lLQMf8
glClBix32EehGN41SgNcCrlDo0YFk3Y0JVTuUay/sNSWIw92FEYeXi6dzhJRMd+G
E3Owitx/QMuXwe71Z6YcvdCwTHXSxnjbCA12xSAsQyjqhZjg52CoHHyaJ6YTeOHd
nwQjA/UUyg==
-----END CERTIFICATE-----
