Certificate:
    Data:
        Version: 1 (0x0)
        Serial Number: 11 (0xb)
        Signature Algorithm: sha256WithRSAEncryption
        Issuer: CN=AGULE
        Validity
            Not Before: Jun 26 13:27:29 2026 GMT
            Not After : Jun 26 13:27:29 2027 GMT
        Subject: CN=mario
        Subject Public Key Info:
            Public Key Algorithm: rsaEncryption
                Public-Key: (2048 bit)
                Modulus:
                    00:ac:a5:e8:d0:4f:77:a3:0e:ea:58:2c:5a:35:8c:
                    c9:2b:f3:81:86:76:ac:20:6e:2b:82:11:96:f2:45:
                    19:47:44:99:00:25:2a:f5:6f:9d:b6:12:af:ba:69:
                    87:45:78:a2:7a:4b:6c:28:76:18:e3:7e:21:ac:f3:
                    46:14:0d:f7:26:29:ab:24:79:a1:92:6e:c6:5c:0d:
                    0e:28:f4:66:71:f8:65:84:03:88:90:66:b2:23:da:
                    74:0c:4d:03:b2:5a:b9:00:84:74:c1:35:b9:4d:d2:
                    64:68:90:27:70:c3:b0:92:fc:cc:53:a8:48:d9:eb:
                    7d:d0:ae:ad:81:3e:2b:88:69:ba:22:92:cd:f5:f7:
                    b5:23:a3:6f:d1:3b:a4:07:9e:96:23:1e:0d:00:73:
                    20:75:60:73:1e:8b:b8:e4:b8:e1:83:b6:ed:3e:11:
                    74:fc:73:cb:0d:ba:53:47:21:3d:73:6e:8c:32:71:
                    c7:ee:91:fc:bf:03:6c:b3:03:45:94:0f:9a:8a:71:
                    4c:4a:71:47:cd:66:8b:b1:6d:fd:71:5a:41:3d:34:
                    dd:81:3a:4c:61:a9:11:a7:3b:dd:0c:b5:61:e8:8e:
                    c4:b9:40:72:fd:b5:71:8a:ca:99:16:c8:1d:51:d2:
                    30:6b:62:2a:de:ee:0a:be:30:b2:b2:7c:98:b2:5a:
                    21:d9
                Exponent: 65537 (0x10001)
    Signature Algorithm: sha256WithRSAEncryption
    Signature Value:
        52:bf:ea:c0:ca:ce:91:58:a8:f7:9b:7c:08:fb:64:5b:38:1a:
        4f:9b:f8:43:02:6a:1b:58:e9:df:03:3d:9a:d9:ad:83:4e:28:
        dd:e3:81:00:4d:6a:79:e7:7f:71:45:12:b8:3e:eb:9e:6c:19:
        c5:bc:fc:c9:d6:01:0f:2c:13:c2:61:b7:9d:f8:63:83:06:18:
        69:a9:4b:78:17:4a:12:93:75:87:24:f7:1b:87:8e:16:73:78:
        70:3c:1b:1f:da:d8:bc:52:6b:49:49:03:d3:8f:e2:1e:08:72:
        fb:4e:4b:0f:ce:83:50:8e:c2:5c:d2:a9:de:ce:bb:41:07:26:
        59:e4:96:02:10:82:70:49:b7:97:35:1a:8c:38:37:0c:ee:ce:
        29:3c:19:29:2d:1f:0f:54:4e:54:63:b7:56:94:8b:18:03:2c:
        7e:e5:9e:21:47:4a:35:ff:70:7f:d1:fd:73:1a:0d:af:e1:ca:
        8b:a7:8f:58:b1:d9:68:7d:03:cd:07:17:f7:5d:87:4e:3d:ce:
        c8:80:37:ff:20:dd:ca:12:01:91:1d:e7:6e:88:25:02:a6:dc:
        1c:89:9d:72:53:3f:18:89:3e:9a:07:67:09:6a:47:0e:b1:d2:
        23:7d:5b:80:da:ad:15:b5:ac:02:f1:ef:27:72:8d:f0:27:d4:
        eb:b9:14:62:0c:9d:4d:82:ec:2c:e4:2b:7c:58:0e:9d:20:42:
        39:9f:24:c5:90:ab:65:de:f1:92:4a:da:07:e5:66:8b:db:90:
        e7:57:11:4f:d9:74:87:8d:f0:aa:fa:29:e3:f9:65:73:d7:84:
        83:3b:78:4a:19:aa:78:9d:fa:d0:b6:54:b5:19:d1:d6:f4:dd:
        6b:59:d6:ad:79:f8:20:4d:0a:d0:9e:2c:a9:fa:e0:52:3d:29:
        42:99:53:11:5f:b9:56:00:9d:b0:5b:3f:03:d5:8f:60:ad:ed:
        cb:c3:92:f2:df:de:1f:2e:a8:eb:53:d8:19:d5:ac:87:20:e9:
        7b:d4:7c:75:8f:53:b5:75:7e:8d:5e:b3:ce:eb:4b:fe:28:56:
        10:cd:5a:2e:cd:04:ad:c2:02:dc:68:bb:62:8f:9b:c2:65:1c:
        18:c3:b0:79:90:de:c6:e8:db:92:0b:48:da:12:9e:02:39:e1:
        1b:23:e4:17:a3:bf:b0:f6:33:69:19:0b:6f:8b:3f:cc:1f:71:
        2a:db:19:ac:6e:a5:ab:43:34:75:2f:68:dc:e0:b4:89:2e:d4:
        4c:e0:37:29:47:ee:44:a7:a8:2c:8e:79:f4:8a:d5:c2:8f:cb:
        63:42:c7:ef:a3:28:1b:9e:db:13:d5:fb:c9:de:fd:da:60:47:
        ec:a7:cb:e4:a2:6b:49:09
-----BEGIN CERTIFICATE-----
MIIDlDCCAXwCAQswDQYJKoZIhvcNAQELBQAwEDEOMAwGA1UEAwwFQUdVTEUwHhcN
MjYwNjI2MTMyNzI5WhcNMjcwNjI2MTMyNzI5WjAQMQ4wDAYDVQQDDAVtYXJpbzCC
ASIwDQYJKoZIhvcNAQEBBQADggEPADCCAQoCggEBAKyl6NBPd6MO6lgsWjWMySvz
gYZ2rCBuK4IRlvJFGUdEmQAlKvVvnbYSr7pph0V4onpLbCh2GON+IazzRhQN9yYp
qyR5oZJuxlwNDij0ZnH4ZYQDiJBmsiPadAxNA7JauQCEdME1uU3SZGiQJ3DDsJL8
zFOoSNnrfdCurYE+K4hpuiKSzfX3tSOjb9E7pAeeliMeDQBzIHVgcx6LuOS44YO2
7T4RdPxzyw26U0chPXNujDJxx+6R/L8DbLMDRZQPmopxTEpxR81mi7Ft/XFaQT00
3YE6TGGpEac73Qy1YeiOxLlAcv21cYrKmRbIHVHSMGtiKt7uCr4wsrJ8mLJaIdkC
AwEAATANBgkqhkiG9w0BAQsFAAOCAgEAUr/qwMrOkVio95t8CPtkWzgaT5v4QwJq
G1jp3wM9mtmtg04o3eOBAE1qeed/cUUSuD7rnmwZxbz8ydYBDywTwmG3nfhjgwYY
aalLeBdKEpN1hyT3G4eOFnN4cDwbH9rYvFJrSUkD04/iHghy+05LD86DUI7CXNKp
3s67QQcmWeSWAhCCcEm3lzUajDg3DO7OKTwZKS0fD1ROVGO3VpSLGAMsfuWeIUdK
Nf9wf9H9cxoNr+HKi6ePWLHZaH0DzQcX912HTj3OyIA3/yDdyhIBkR3nboglAqbc
HImdclM/GIk+mgdnCWpHDrHSI31bgNqtFbWsAvHvJ3KN8CfU67kUYgydTYLsLOQr
fFgOnSBCOZ8kxZCrZd7xkkraB+Vmi9uQ51cRT9l0h43wqvop4/llc9eEgzt4Shmq
eJ360LZUtRnR1vTda1nWrXn4IE0K0J4sqfrgUj0pQplTEV+5VgCdsFs/A9WPYK3t
y8OS8t/eHy6o61PYGdWshyDpe9R8dY9TtXV+jV6zzutL/ihWEM1aLs0ErcIC3Gi7
Yo+bwmUcGMOweZDexujbkgtI2hKeAjnhGyPkF6O/sPYzaRkLb4s/zB9xKtsZrG6l
q0M0dS9o3OC0iS7UTOA3KUfuRKeoLI559IrVwo/LY0LH76MoG57bE9X7yd792mBH
7KfL5KJrSQk=
-----END CERTIFICATE-----
