Certificate:
    Data:
        Version: 1 (0x0)
        Serial Number: 4 (0x4)
        Signature Algorithm: sha256WithRSAEncryption
        Issuer: CN=AGULE
        Validity
            Not Before: Apr  1 16:42:21 2026 GMT
            Not After : Apr  1 16:42:21 2027 GMT
        Subject: CN=AGULE
        Subject Public Key Info:
            Public Key Algorithm: rsaEncryption
                Public-Key: (4096 bit)
                Modulus:
                    00:99:b6:5a:70:e6:3e:07:e0:b1:b5:97:b5:51:ea:
                    95:4a:c7:6b:c4:b1:ba:d2:36:58:73:13:d7:47:ad:
                    f1:4b:d8:92:50:e5:e7:4f:34:55:ed:ef:0d:d6:b4:
                    d9:40:2e:e6:e4:ed:fe:cd:e0:80:30:c2:a9:7e:ea:
                    5c:f0:a6:cf:0d:b6:2b:d1:90:8c:b4:28:a7:df:dc:
                    6d:e5:26:7d:03:8a:f2:ba:ec:4a:4a:70:9c:58:0d:
                    b2:33:3f:97:4a:bd:66:29:ca:ae:81:08:3d:18:f2:
                    a9:93:a9:47:0d:a5:5d:57:0c:f2:54:72:f6:ad:06:
                    16:5a:34:25:04:28:e4:bc:a0:e5:8d:c7:f2:0c:aa:
                    7e:e9:a0:7e:ed:76:ca:69:ee:9c:be:ac:fe:af:7b:
                    0a:40:59:31:33:f3:48:02:82:af:c8:9a:68:9c:7b:
                    e5:d3:43:cf:b9:0c:01:ab:c4:39:4f:ff:c7:21:eb:
                    9d:17:19:72:a8:4d:65:1e:71:69:a8:25:bd:da:99:
                    97:67:62:b0:fc:43:8d:1a:22:e1:64:cc:ff:1b:34:
                    10:45:f0:52:20:70:3f:db:83:0a:8f:f0:29:6b:18:
                    35:d3:23:18:00:32:f8:e1:5c:e4:99:a0:55:3c:12:
                    dd:da:f7:32:1b:8f:d0:6b:01:8e:47:eb:0e:28:fa:
                    0a:1f:6b:cc:cc:17:62:ca:bf:df:fc:18:d6:9d:30:
                    36:ed:c7:b2:ad:98:c1:da:68:07:83:a7:19:41:ba:
                    e8:5f:aa:24:63:ae:89:a4:a0:16:2e:23:2e:9d:49:
                    f5:1a:7e:3c:0b:99:ca:2d:ed:ed:b9:bf:f4:44:d0:
                    34:7e:30:a4:1b:d4:79:19:4e:ab:a3:26:c5:42:b8:
                    2e:16:9a:9d:57:74:3f:55:8a:e4:90:3e:87:cf:37:
                    78:6d:54:51:88:12:5d:31:c3:5e:49:0f:b8:48:13:
                    af:a2:19:4c:18:91:78:79:83:60:3a:22:64:6d:28:
                    a5:25:22:ef:73:bc:1e:bd:ea:8f:52:2b:a7:e3:49:
                    c4:83:ba:a1:39:66:76:98:5e:64:67:a3:64:34:26:
                    7b:3d:d0:1b:48:a2:8c:9b:e1:1f:e6:42:03:be:06:
                    97:ef:6d:7b:e9:42:15:40:5f:25:32:c2:b4:b5:0d:
                    95:51:48:62:af:b2:69:2f:70:8e:c7:de:e9:f7:78:
                    e7:6f:e0:00:4a:09:f8:2d:63:9c:44:ce:82:fc:02:
                    a2:10:c6:a6:76:2c:5e:da:9c:54:4e:99:b4:7b:28:
                    63:09:fa:0f:45:ed:12:b8:ac:4a:d2:0f:8f:a7:68:
                    e2:a9:7f:b0:be:65:3b:74:8b:e1:8b:38:de:d0:5e:
                    bc:92:01
                Exponent: 65537 (0x10001)
    Signature Algorithm: sha256WithRSAEncryption
    Signature Value:
        4e:67:02:b9:07:07:2c:b7:ae:ba:bd:7f:10:8e:71:85:a7:af:
        5b:7b:ec:fe:7e:eb:f8:48:fa:3c:c6:2b:59:79:50:36:5f:84:
        70:35:7f:02:b0:b5:89:cc:9a:5f:56:67:bc:33:09:44:16:97:
        bd:c0:97:12:6a:09:e5:40:e7:96:c3:e6:eb:53:cc:6c:b0:fc:
        dd:c1:79:83:f4:64:1c:0a:cd:82:8e:c8:3a:01:66:c9:0e:2a:
        2c:82:cf:fe:64:ca:83:ea:e9:98:0f:8d:2f:43:a9:b6:ef:ad:
        2e:c2:1d:81:39:fe:33:25:d1:10:7a:c4:be:5a:51:e2:5c:1c:
        8d:50:fe:40:f6:96:4f:a2:ce:91:a2:3a:a8:b5:12:e4:63:47:
        67:3b:1b:91:3c:89:79:b0:4c:cd:7a:01:73:f4:10:79:77:f9:
        3f:f0:4f:51:4c:3c:51:93:40:48:45:31:01:68:73:94:f5:fc:
        66:ac:8d:e9:a0:c3:d2:aa:cf:99:9e:43:3d:ee:49:2d:05:3d:
        aa:cc:b7:2c:79:ae:d4:d7:c4:84:ac:26:de:3d:db:c5:b0:3b:
        a7:0e:87:f6:c3:d7:a2:21:d2:8e:e8:45:83:69:de:48:f3:78:
        fc:31:77:71:0e:bb:52:ed:d2:1e:aa:f3:33:bd:5f:4a:32:8c:
        8e:98:0b:07:5f:13:3b:0b:96:f0:3b:74:c8:5c:b7:1d:4c:68:
        82:c3:58:ba:e3:9b:c0:72:36:ce:53:2b:6c:8b:78:39:4e:24:
        82:0d:dd:50:4a:48:1f:aa:3a:4f:40:c6:04:ea:6a:87:26:0e:
        1b:36:ff:9a:bc:1e:cf:11:f7:ab:73:93:5b:7b:db:28:f1:d1:
        cb:fd:8c:1b:72:ec:f3:a0:32:a1:9b:68:79:05:36:c0:7c:f7:
        21:4d:7a:bd:6d:43:9c:68:29:a7:d0:38:8c:df:41:f5:ac:44:
        21:fa:de:6f:39:f0:0f:c2:97:1d:f8:f5:82:77:f3:72:77:a3:
        b5:55:d0:36:d2:2a:99:1c:0f:43:c5:a1:3e:7a:de:1b:e0:74:
        a6:c4:a5:4a:54:ca:84:4f:f0:42:76:14:2a:18:85:7f:37:cc:
        9f:d0:91:0f:62:24:b2:fd:46:cc:f9:61:f9:a4:04:d8:af:e9:
        87:a3:fb:66:38:30:dc:92:7d:f9:d3:79:e5:b8:18:dd:9f:51:
        67:f5:f2:02:2c:c9:45:c4:2c:ad:6f:b6:7c:26:a5:d7:d7:bb:
        eb:c0:a8:bb:25:23:7e:49:a1:11:2b:5f:f5:b6:d5:59:df:91:
        65:99:e4:26:51:58:5c:e1:9d:df:9d:c5:7b:ca:eb:a4:7f:5d:
        32:b5:aa:99:13:3a:c5:63
-----BEGIN CERTIFICATE-----
MIIElDCCAnwCAQQwDQYJKoZIhvcNAQELBQAwEDEOMAwGA1UEAwwFQUdVTEUwHhcN
MjYwNDAxMTY0MjIxWhcNMjcwNDAxMTY0MjIxWjAQMQ4wDAYDVQQDDAVBR1VMRTCC
AiIwDQYJKoZIhvcNAQEBBQADggIPADCCAgoCggIBAJm2WnDmPgfgsbWXtVHqlUrH
a8SxutI2WHMT10et8UvYklDl5080Ve3vDda02UAu5uTt/s3ggDDCqX7qXPCmzw22
K9GQjLQop9/cbeUmfQOK8rrsSkpwnFgNsjM/l0q9ZinKroEIPRjyqZOpRw2lXVcM
8lRy9q0GFlo0JQQo5Lyg5Y3H8gyqfumgfu12ymnunL6s/q97CkBZMTPzSAKCr8ia
aJx75dNDz7kMAavEOU//xyHrnRcZcqhNZR5xaaglvdqZl2disPxDjRoi4WTM/xs0
EEXwUiBwP9uDCo/wKWsYNdMjGAAy+OFc5JmgVTwS3dr3MhuP0GsBjkfrDij6Ch9r
zMwXYsq/3/wY1p0wNu3Hsq2YwdpoB4OnGUG66F+qJGOuiaSgFi4jLp1J9Rp+PAuZ
yi3t7bm/9ETQNH4wpBvUeRlOq6MmxUK4LhaanVd0P1WK5JA+h883eG1UUYgSXTHD
XkkPuEgTr6IZTBiReHmDYDoiZG0opSUi73O8Hr3qj1Irp+NJxIO6oTlmdpheZGej
ZDQmez3QG0iijJvhH+ZCA74Gl+9te+lCFUBfJTLCtLUNlVFIYq+yaS9wjsfe6fd4
52/gAEoJ+C1jnETOgvwCohDGpnYsXtqcVE6ZtHsoYwn6D0XtErisStIPj6do4ql/
sL5lO3SL4Ys43tBevJIBAgMBAAEwDQYJKoZIhvcNAQELBQADggIBAE5nArkHByy3
rrq9fxCOcYWnr1t77P5+6/hI+jzGK1l5UDZfhHA1fwKwtYnMml9WZ7wzCUQWl73A
lxJqCeVA55bD5utTzGyw/N3BeYP0ZBwKzYKOyDoBZskOKiyCz/5kyoPq6ZgPjS9D
qbbvrS7CHYE5/jMl0RB6xL5aUeJcHI1Q/kD2lk+izpGiOqi1EuRjR2c7G5E8iXmw
TM16AXP0EHl3+T/wT1FMPFGTQEhFMQFoc5T1/Gasjemgw9Kqz5meQz3uSS0FParM
tyx5rtTXxISsJt4928WwO6cOh/bD16Ih0o7oRYNp3kjzePwxd3EOu1Lt0h6q8zO9
X0oyjI6YCwdfEzsLlvA7dMhctx1MaILDWLrjm8ByNs5TK2yLeDlOJIIN3VBKSB+q
Ok9AxgTqaocmDhs2/5q8Hs8R96tzk1t72yjx0cv9jBty7POgMqGbaHkFNsB89yFN
er1tQ5xoKafQOIzfQfWsRCH63m858A/Clx349YJ383J3o7VV0DbSKpkcD0PFoT56
3hvgdKbEpUpUyoRP8EJ2FCoYhX83zJ/QkQ9iJLL9Rsz5YfmkBNiv6Yej+2Y4MNyS
ffnTeeW4GN2fUWf18gIsyUXELK1vtnwmpdfXu+vAqLslI35JoRErX/W21VnfkWWZ
5CZRWFzhnd+dxXvK66R/XTK1qpkTOsVj
-----END CERTIFICATE-----
